
/home/jaewon/ARCS_Final/var_c14n/result/basename/basename.out:     file format elf64-x86-64


Disassembly of section .init:

0000000000002000 <_init>:
    2000:	48 83 ec 08          	sub    $0x8,%rsp
    2004:	48 8b 05 dd 7f 00 00 	mov    0x7fdd(%rip),%rax        # 9fe8 <__gmon_start__>
    200b:	48 85 c0             	test   %rax,%rax
    200e:	74 02                	je     2012 <_init+0x12>
    2010:	ff d0                	callq  *%rax
    2012:	48 83 c4 08          	add    $0x8,%rsp
    2016:	c3                   	retq   

Disassembly of section .plt:

0000000000002020 <.plt>:
    2020:	ff 35 e2 7f 00 00    	pushq  0x7fe2(%rip)        # a008 <_GLOBAL_OFFSET_TABLE_+0x8>
    2026:	ff 25 e4 7f 00 00    	jmpq   *0x7fe4(%rip)        # a010 <_GLOBAL_OFFSET_TABLE_+0x10>
    202c:	0f 1f 40 00          	nopl   0x0(%rax)

0000000000002030 <free@plt>:
    2030:	ff 25 e2 7f 00 00    	jmpq   *0x7fe2(%rip)        # a018 <free@GLIBC_2.2.5>
    2036:	68 00 00 00 00       	pushq  $0x0
    203b:	e9 e0 ff ff ff       	jmpq   2020 <.plt>

0000000000002040 <abort@plt>:
    2040:	ff 25 da 7f 00 00    	jmpq   *0x7fda(%rip)        # a020 <abort@GLIBC_2.2.5>
    2046:	68 01 00 00 00       	pushq  $0x1
    204b:	e9 d0 ff ff ff       	jmpq   2020 <.plt>

0000000000002050 <__errno_location@plt>:
    2050:	ff 25 d2 7f 00 00    	jmpq   *0x7fd2(%rip)        # a028 <__errno_location@GLIBC_2.2.5>
    2056:	68 02 00 00 00       	pushq  $0x2
    205b:	e9 c0 ff ff ff       	jmpq   2020 <.plt>

0000000000002060 <strncmp@plt>:
    2060:	ff 25 ca 7f 00 00    	jmpq   *0x7fca(%rip)        # a030 <strncmp@GLIBC_2.2.5>
    2066:	68 03 00 00 00       	pushq  $0x3
    206b:	e9 b0 ff ff ff       	jmpq   2020 <.plt>

0000000000002070 <_exit@plt>:
    2070:	ff 25 c2 7f 00 00    	jmpq   *0x7fc2(%rip)        # a038 <_exit@GLIBC_2.2.5>
    2076:	68 04 00 00 00       	pushq  $0x4
    207b:	e9 a0 ff ff ff       	jmpq   2020 <.plt>

0000000000002080 <__fpending@plt>:
    2080:	ff 25 ba 7f 00 00    	jmpq   *0x7fba(%rip)        # a040 <__fpending@GLIBC_2.2.5>
    2086:	68 05 00 00 00       	pushq  $0x5
    208b:	e9 90 ff ff ff       	jmpq   2020 <.plt>

0000000000002090 <reallocarray@plt>:
    2090:	ff 25 b2 7f 00 00    	jmpq   *0x7fb2(%rip)        # a048 <reallocarray@GLIBC_2.26>
    2096:	68 06 00 00 00       	pushq  $0x6
    209b:	e9 80 ff ff ff       	jmpq   2020 <.plt>

00000000000020a0 <textdomain@plt>:
    20a0:	ff 25 aa 7f 00 00    	jmpq   *0x7faa(%rip)        # a050 <textdomain@GLIBC_2.2.5>
    20a6:	68 07 00 00 00       	pushq  $0x7
    20ab:	e9 70 ff ff ff       	jmpq   2020 <.plt>

00000000000020b0 <fclose@plt>:
    20b0:	ff 25 a2 7f 00 00    	jmpq   *0x7fa2(%rip)        # a058 <fclose@GLIBC_2.2.5>
    20b6:	68 08 00 00 00       	pushq  $0x8
    20bb:	e9 60 ff ff ff       	jmpq   2020 <.plt>

00000000000020c0 <bindtextdomain@plt>:
    20c0:	ff 25 9a 7f 00 00    	jmpq   *0x7f9a(%rip)        # a060 <bindtextdomain@GLIBC_2.2.5>
    20c6:	68 09 00 00 00       	pushq  $0x9
    20cb:	e9 50 ff ff ff       	jmpq   2020 <.plt>

00000000000020d0 <__ctype_get_mb_cur_max@plt>:
    20d0:	ff 25 92 7f 00 00    	jmpq   *0x7f92(%rip)        # a068 <__ctype_get_mb_cur_max@GLIBC_2.2.5>
    20d6:	68 0a 00 00 00       	pushq  $0xa
    20db:	e9 40 ff ff ff       	jmpq   2020 <.plt>

00000000000020e0 <strlen@plt>:
    20e0:	ff 25 8a 7f 00 00    	jmpq   *0x7f8a(%rip)        # a070 <strlen@GLIBC_2.2.5>
    20e6:	68 0b 00 00 00       	pushq  $0xb
    20eb:	e9 30 ff ff ff       	jmpq   2020 <.plt>

00000000000020f0 <getopt_long@plt>:
    20f0:	ff 25 82 7f 00 00    	jmpq   *0x7f82(%rip)        # a078 <getopt_long@GLIBC_2.2.5>
    20f6:	68 0c 00 00 00       	pushq  $0xc
    20fb:	e9 20 ff ff ff       	jmpq   2020 <.plt>

0000000000002100 <mbrtowc@plt>:
    2100:	ff 25 7a 7f 00 00    	jmpq   *0x7f7a(%rip)        # a080 <mbrtowc@GLIBC_2.2.5>
    2106:	68 0d 00 00 00       	pushq  $0xd
    210b:	e9 10 ff ff ff       	jmpq   2020 <.plt>

0000000000002110 <gettext@plt>:
    2110:	ff 25 72 7f 00 00    	jmpq   *0x7f72(%rip)        # a088 <gettext@GLIBC_2.2.5>
    2116:	68 0e 00 00 00       	pushq  $0xe
    211b:	e9 00 ff ff ff       	jmpq   2020 <.plt>

0000000000002120 <printf@plt>:
    2120:	ff 25 6a 7f 00 00    	jmpq   *0x7f6a(%rip)        # a090 <printf@GLIBC_2.2.5>
    2126:	68 0f 00 00 00       	pushq  $0xf
    212b:	e9 f0 fe ff ff       	jmpq   2020 <.plt>

0000000000002130 <strrchr@plt>:
    2130:	ff 25 62 7f 00 00    	jmpq   *0x7f62(%rip)        # a098 <strrchr@GLIBC_2.2.5>
    2136:	68 10 00 00 00       	pushq  $0x10
    213b:	e9 e0 fe ff ff       	jmpq   2020 <.plt>

0000000000002140 <lseek@plt>:
    2140:	ff 25 5a 7f 00 00    	jmpq   *0x7f5a(%rip)        # a0a0 <lseek@GLIBC_2.2.5>
    2146:	68 11 00 00 00       	pushq  $0x11
    214b:	e9 d0 fe ff ff       	jmpq   2020 <.plt>

0000000000002150 <memset@plt>:
    2150:	ff 25 52 7f 00 00    	jmpq   *0x7f52(%rip)        # a0a8 <memset@GLIBC_2.2.5>
    2156:	68 12 00 00 00       	pushq  $0x12
    215b:	e9 c0 fe ff ff       	jmpq   2020 <.plt>

0000000000002160 <memcmp@plt>:
    2160:	ff 25 4a 7f 00 00    	jmpq   *0x7f4a(%rip)        # a0b0 <memcmp@GLIBC_2.2.5>
    2166:	68 13 00 00 00       	pushq  $0x13
    216b:	e9 b0 fe ff ff       	jmpq   2020 <.plt>

0000000000002170 <fputs_unlocked@plt>:
    2170:	ff 25 42 7f 00 00    	jmpq   *0x7f42(%rip)        # a0b8 <fputs_unlocked@GLIBC_2.2.5>
    2176:	68 14 00 00 00       	pushq  $0x14
    217b:	e9 a0 fe ff ff       	jmpq   2020 <.plt>

0000000000002180 <ferror_unlocked@plt>:
    2180:	ff 25 3a 7f 00 00    	jmpq   *0x7f3a(%rip)        # a0c0 <ferror_unlocked@GLIBC_2.2.5>
    2186:	68 15 00 00 00       	pushq  $0x15
    218b:	e9 90 fe ff ff       	jmpq   2020 <.plt>

0000000000002190 <calloc@plt>:
    2190:	ff 25 32 7f 00 00    	jmpq   *0x7f32(%rip)        # a0c8 <calloc@GLIBC_2.2.5>
    2196:	68 16 00 00 00       	pushq  $0x16
    219b:	e9 80 fe ff ff       	jmpq   2020 <.plt>

00000000000021a0 <strcmp@plt>:
    21a0:	ff 25 2a 7f 00 00    	jmpq   *0x7f2a(%rip)        # a0d0 <strcmp@GLIBC_2.2.5>
    21a6:	68 17 00 00 00       	pushq  $0x17
    21ab:	e9 70 fe ff ff       	jmpq   2020 <.plt>

00000000000021b0 <fputc_unlocked@plt>:
    21b0:	ff 25 22 7f 00 00    	jmpq   *0x7f22(%rip)        # a0d8 <fputc_unlocked@GLIBC_2.2.5>
    21b6:	68 18 00 00 00       	pushq  $0x18
    21bb:	e9 60 fe ff ff       	jmpq   2020 <.plt>

00000000000021c0 <fprintf@plt>:
    21c0:	ff 25 1a 7f 00 00    	jmpq   *0x7f1a(%rip)        # a0e0 <fprintf@GLIBC_2.2.5>
    21c6:	68 19 00 00 00       	pushq  $0x19
    21cb:	e9 50 fe ff ff       	jmpq   2020 <.plt>

00000000000021d0 <memcpy@plt>:
    21d0:	ff 25 12 7f 00 00    	jmpq   *0x7f12(%rip)        # a0e8 <memcpy@GLIBC_2.14>
    21d6:	68 1a 00 00 00       	pushq  $0x1a
    21db:	e9 40 fe ff ff       	jmpq   2020 <.plt>

00000000000021e0 <putchar_unlocked@plt>:
    21e0:	ff 25 0a 7f 00 00    	jmpq   *0x7f0a(%rip)        # a0f0 <putchar_unlocked@GLIBC_2.2.5>
    21e6:	68 1b 00 00 00       	pushq  $0x1b
    21eb:	e9 30 fe ff ff       	jmpq   2020 <.plt>

00000000000021f0 <fileno@plt>:
    21f0:	ff 25 02 7f 00 00    	jmpq   *0x7f02(%rip)        # a0f8 <fileno@GLIBC_2.2.5>
    21f6:	68 1c 00 00 00       	pushq  $0x1c
    21fb:	e9 20 fe ff ff       	jmpq   2020 <.plt>

0000000000002200 <malloc@plt>:
    2200:	ff 25 fa 7e 00 00    	jmpq   *0x7efa(%rip)        # a100 <malloc@GLIBC_2.2.5>
    2206:	68 1d 00 00 00       	pushq  $0x1d
    220b:	e9 10 fe ff ff       	jmpq   2020 <.plt>

0000000000002210 <fflush@plt>:
    2210:	ff 25 f2 7e 00 00    	jmpq   *0x7ef2(%rip)        # a108 <fflush@GLIBC_2.2.5>
    2216:	68 1e 00 00 00       	pushq  $0x1e
    221b:	e9 00 fe ff ff       	jmpq   2020 <.plt>

0000000000002220 <nl_langinfo@plt>:
    2220:	ff 25 ea 7e 00 00    	jmpq   *0x7eea(%rip)        # a110 <nl_langinfo@GLIBC_2.2.5>
    2226:	68 1f 00 00 00       	pushq  $0x1f
    222b:	e9 f0 fd ff ff       	jmpq   2020 <.plt>

0000000000002230 <__freading@plt>:
    2230:	ff 25 e2 7e 00 00    	jmpq   *0x7ee2(%rip)        # a118 <__freading@GLIBC_2.2.5>
    2236:	68 20 00 00 00       	pushq  $0x20
    223b:	e9 e0 fd ff ff       	jmpq   2020 <.plt>

0000000000002240 <realloc@plt>:
    2240:	ff 25 da 7e 00 00    	jmpq   *0x7eda(%rip)        # a120 <realloc@GLIBC_2.2.5>
    2246:	68 21 00 00 00       	pushq  $0x21
    224b:	e9 d0 fd ff ff       	jmpq   2020 <.plt>

0000000000002250 <setlocale@plt>:
    2250:	ff 25 d2 7e 00 00    	jmpq   *0x7ed2(%rip)        # a128 <setlocale@GLIBC_2.2.5>
    2256:	68 22 00 00 00       	pushq  $0x22
    225b:	e9 c0 fd ff ff       	jmpq   2020 <.plt>

0000000000002260 <error@plt>:
    2260:	ff 25 ca 7e 00 00    	jmpq   *0x7eca(%rip)        # a130 <error@GLIBC_2.2.5>
    2266:	68 23 00 00 00       	pushq  $0x23
    226b:	e9 b0 fd ff ff       	jmpq   2020 <.plt>

0000000000002270 <fseeko@plt>:
    2270:	ff 25 c2 7e 00 00    	jmpq   *0x7ec2(%rip)        # a138 <fseeko@GLIBC_2.2.5>
    2276:	68 24 00 00 00       	pushq  $0x24
    227b:	e9 a0 fd ff ff       	jmpq   2020 <.plt>

0000000000002280 <__cxa_atexit@plt>:
    2280:	ff 25 ba 7e 00 00    	jmpq   *0x7eba(%rip)        # a140 <__cxa_atexit@GLIBC_2.2.5>
    2286:	68 25 00 00 00       	pushq  $0x25
    228b:	e9 90 fd ff ff       	jmpq   2020 <.plt>

0000000000002290 <exit@plt>:
    2290:	ff 25 b2 7e 00 00    	jmpq   *0x7eb2(%rip)        # a148 <exit@GLIBC_2.2.5>
    2296:	68 26 00 00 00       	pushq  $0x26
    229b:	e9 80 fd ff ff       	jmpq   2020 <.plt>

00000000000022a0 <fwrite@plt>:
    22a0:	ff 25 aa 7e 00 00    	jmpq   *0x7eaa(%rip)        # a150 <fwrite@GLIBC_2.2.5>
    22a6:	68 27 00 00 00       	pushq  $0x27
    22ab:	e9 70 fd ff ff       	jmpq   2020 <.plt>

00000000000022b0 <mbsinit@plt>:
    22b0:	ff 25 a2 7e 00 00    	jmpq   *0x7ea2(%rip)        # a158 <mbsinit@GLIBC_2.2.5>
    22b6:	68 28 00 00 00       	pushq  $0x28
    22bb:	e9 60 fd ff ff       	jmpq   2020 <.plt>

00000000000022c0 <iswprint@plt>:
    22c0:	ff 25 9a 7e 00 00    	jmpq   *0x7e9a(%rip)        # a160 <iswprint@GLIBC_2.2.5>
    22c6:	68 29 00 00 00       	pushq  $0x29
    22cb:	e9 50 fd ff ff       	jmpq   2020 <.plt>

00000000000022d0 <__ctype_b_loc@plt>:
    22d0:	ff 25 92 7e 00 00    	jmpq   *0x7e92(%rip)        # a168 <__ctype_b_loc@GLIBC_2.3>
    22d6:	68 2a 00 00 00       	pushq  $0x2a
    22db:	e9 40 fd ff ff       	jmpq   2020 <.plt>

Disassembly of section .plt.got:

00000000000022e0 <__cxa_finalize@plt>:
    22e0:	ff 25 12 7d 00 00    	jmpq   *0x7d12(%rip)        # 9ff8 <__cxa_finalize@GLIBC_2.2.5>
    22e6:	66 90                	xchg   %ax,%ax

Disassembly of section .text:

00000000000022f0 <_start>:
    22f0:	31 ed                	xor    %ebp,%ebp
    22f2:	49 89 d1             	mov    %rdx,%r9
    22f5:	5e                   	pop    %rsi
    22f6:	48 89 e2             	mov    %rsp,%rdx
    22f9:	48 83 e4 f0          	and    $0xfffffffffffffff0,%rsp
    22fd:	50                   	push   %rax
    22fe:	54                   	push   %rsp
    22ff:	4c 8d 05 1a 41 00 00 	lea    0x411a(%rip),%r8        # 6420 <__libc_csu_fini>
    2306:	48 8d 0d b3 40 00 00 	lea    0x40b3(%rip),%rcx        # 63c0 <__libc_csu_init>
    230d:	48 8d 3d 86 05 00 00 	lea    0x586(%rip),%rdi        # 289a <main>
    2314:	ff 15 c6 7c 00 00    	callq  *0x7cc6(%rip)        # 9fe0 <__libc_start_main@GLIBC_2.2.5>
    231a:	f4                   	hlt    
    231b:	0f 1f 44 00 00       	nopl   0x0(%rax,%rax,1)

0000000000002320 <deregister_tm_clones>:
    2320:	48 8d 3d f1 7e 00 00 	lea    0x7ef1(%rip),%rdi        # a218 <__TMC_END__>
    2327:	48 8d 05 ea 7e 00 00 	lea    0x7eea(%rip),%rax        # a218 <__TMC_END__>
    232e:	48 39 f8             	cmp    %rdi,%rax
    2331:	74 15                	je     2348 <deregister_tm_clones+0x28>
    2333:	48 8b 05 9e 7c 00 00 	mov    0x7c9e(%rip),%rax        # 9fd8 <_ITM_deregisterTMCloneTable>
    233a:	48 85 c0             	test   %rax,%rax
    233d:	74 09                	je     2348 <deregister_tm_clones+0x28>
    233f:	ff e0                	jmpq   *%rax
    2341:	0f 1f 80 00 00 00 00 	nopl   0x0(%rax)
    2348:	c3                   	retq   
    2349:	0f 1f 80 00 00 00 00 	nopl   0x0(%rax)

0000000000002350 <register_tm_clones>:
    2350:	48 8d 3d c1 7e 00 00 	lea    0x7ec1(%rip),%rdi        # a218 <__TMC_END__>
    2357:	48 8d 35 ba 7e 00 00 	lea    0x7eba(%rip),%rsi        # a218 <__TMC_END__>
    235e:	48 29 fe             	sub    %rdi,%rsi
    2361:	48 89 f0             	mov    %rsi,%rax
    2364:	48 c1 ee 3f          	shr    $0x3f,%rsi
    2368:	48 c1 f8 03          	sar    $0x3,%rax
    236c:	48 01 c6             	add    %rax,%rsi
    236f:	48 d1 fe             	sar    %rsi
    2372:	74 14                	je     2388 <register_tm_clones+0x38>
    2374:	48 8b 05 75 7c 00 00 	mov    0x7c75(%rip),%rax        # 9ff0 <_ITM_registerTMCloneTable>
    237b:	48 85 c0             	test   %rax,%rax
    237e:	74 08                	je     2388 <register_tm_clones+0x38>
    2380:	ff e0                	jmpq   *%rax
    2382:	66 0f 1f 44 00 00    	nopw   0x0(%rax,%rax,1)
    2388:	c3                   	retq   
    2389:	0f 1f 80 00 00 00 00 	nopl   0x0(%rax)

0000000000002390 <__do_global_dtors_aux>:
    2390:	80 3d d1 7e 00 00 00 	cmpb   $0x0,0x7ed1(%rip)        # a268 <completed.0>
    2397:	75 2f                	jne    23c8 <__do_global_dtors_aux+0x38>
    2399:	55                   	push   %rbp
    239a:	48 83 3d 56 7c 00 00 	cmpq   $0x0,0x7c56(%rip)        # 9ff8 <__cxa_finalize@GLIBC_2.2.5>
    23a1:	00 
    23a2:	48 89 e5             	mov    %rsp,%rbp
    23a5:	74 0c                	je     23b3 <__do_global_dtors_aux+0x23>
    23a7:	48 8b 3d da 7d 00 00 	mov    0x7dda(%rip),%rdi        # a188 <__dso_handle>
    23ae:	e8 2d ff ff ff       	callq  22e0 <__cxa_finalize@plt>
    23b3:	e8 68 ff ff ff       	callq  2320 <deregister_tm_clones>
    23b8:	c6 05 a9 7e 00 00 01 	movb   $0x1,0x7ea9(%rip)        # a268 <completed.0>
    23bf:	5d                   	pop    %rbp
    23c0:	c3                   	retq   
    23c1:	0f 1f 80 00 00 00 00 	nopl   0x0(%rax)
    23c8:	c3                   	retq   
    23c9:	0f 1f 80 00 00 00 00 	nopl   0x0(%rax)

00000000000023d0 <frame_dummy>:
    23d0:	e9 7b ff ff ff       	jmpq   2350 <register_tm_clones>

00000000000023d5 <emit_mandatory_arg_note>:
    23d5:	55                   	push   %rbp
    23d6:	48 89 e5             	mov    %rsp,%rbp
    23d9:	53                   	push   %rbx
    23da:	48 83 ec 08          	sub    $0x8,%rsp
    23de:	48 8b 1d 43 7e 00 00 	mov    0x7e43(%rip),%rbx        # a228 <stdout@@GLIBC_2.2.5>
    23e5:	48 8d 3d 1c 4c 00 00 	lea    0x4c1c(%rip),%rdi        # 7008 <_IO_stdin_used+0x8>
    23ec:	e8 1f fd ff ff       	callq  2110 <gettext@plt>
    23f1:	48 89 de             	mov    %rbx,%rsi
    23f4:	48 89 c7             	mov    %rax,%rdi
    23f7:	e8 74 fd ff ff       	callq  2170 <fputs_unlocked@plt>
    23fc:	90                   	nop
    23fd:	48 8b 5d f8          	mov    -0x8(%rbp),%rbx
    2401:	c9                   	leaveq 
    2402:	c3                   	retq   

0000000000002403 <emit_ancillary_info>:
    2403:	55                   	push   %rbp
    2404:	48 89 e5             	mov    %rsp,%rbp
    2407:	53                   	push   %rbx
    2408:	48 81 ec a8 00 00 00 	sub    $0xa8,%rsp
    240f:	48 89 bd 58 ff ff ff 	mov    %rdi,-0xa8(%rbp)
    2416:	48 8d 05 36 4c 00 00 	lea    0x4c36(%rip),%rax        # 7053 <_IO_stdin_used+0x53>
    241d:	48 89 85 60 ff ff ff 	mov    %rax,-0xa0(%rbp)
    2424:	48 8d 05 2a 4c 00 00 	lea    0x4c2a(%rip),%rax        # 7055 <_IO_stdin_used+0x55>
    242b:	48 89 85 68 ff ff ff 	mov    %rax,-0x98(%rbp)
    2432:	48 8d 05 2c 4c 00 00 	lea    0x4c2c(%rip),%rax        # 7065 <_IO_stdin_used+0x65>
    2439:	48 89 85 70 ff ff ff 	mov    %rax,-0x90(%rbp)
    2440:	48 8d 05 28 4c 00 00 	lea    0x4c28(%rip),%rax        # 706f <_IO_stdin_used+0x6f>
    2447:	48 89 85 78 ff ff ff 	mov    %rax,-0x88(%rbp)
    244e:	48 8d 05 30 4c 00 00 	lea    0x4c30(%rip),%rax        # 7085 <_IO_stdin_used+0x85>
    2455:	48 89 45 80          	mov    %rax,-0x80(%rbp)
    2459:	48 8d 05 2f 4c 00 00 	lea    0x4c2f(%rip),%rax        # 708f <_IO_stdin_used+0x8f>
    2460:	48 89 45 88          	mov    %rax,-0x78(%rbp)
    2464:	48 8d 05 33 4c 00 00 	lea    0x4c33(%rip),%rax        # 709e <_IO_stdin_used+0x9e>
    246b:	48 89 45 90          	mov    %rax,-0x70(%rbp)
    246f:	48 8d 05 19 4c 00 00 	lea    0x4c19(%rip),%rax        # 708f <_IO_stdin_used+0x8f>
    2476:	48 89 45 98          	mov    %rax,-0x68(%rbp)
    247a:	48 8d 05 27 4c 00 00 	lea    0x4c27(%rip),%rax        # 70a8 <_IO_stdin_used+0xa8>
    2481:	48 89 45 a0          	mov    %rax,-0x60(%rbp)
    2485:	48 8d 05 03 4c 00 00 	lea    0x4c03(%rip),%rax        # 708f <_IO_stdin_used+0x8f>
    248c:	48 89 45 a8          	mov    %rax,-0x58(%rbp)
    2490:	48 8d 05 1b 4c 00 00 	lea    0x4c1b(%rip),%rax        # 70b2 <_IO_stdin_used+0xb2>
    2497:	48 89 45 b0          	mov    %rax,-0x50(%rbp)
    249b:	48 8d 05 ed 4b 00 00 	lea    0x4bed(%rip),%rax        # 708f <_IO_stdin_used+0x8f>
    24a2:	48 89 45 b8          	mov    %rax,-0x48(%rbp)
    24a6:	48 c7 45 c0 00 00 00 	movq   $0x0,-0x40(%rbp)
    24ad:	00 
    24ae:	48 c7 45 c8 00 00 00 	movq   $0x0,-0x38(%rbp)
    24b5:	00 
    24b6:	48 8b 85 58 ff ff ff 	mov    -0xa8(%rbp),%rax
    24bd:	48 89 45 e8          	mov    %rax,-0x18(%rbp)
    24c1:	48 8d 85 60 ff ff ff 	lea    -0xa0(%rbp),%rax
    24c8:	48 89 45 e0          	mov    %rax,-0x20(%rbp)
    24cc:	eb 05                	jmp    24d3 <emit_ancillary_info+0xd0>
    24ce:	48 83 45 e0 10       	addq   $0x10,-0x20(%rbp)
    24d3:	48 8b 45 e0          	mov    -0x20(%rbp),%rax
    24d7:	48 8b 00             	mov    (%rax),%rax
    24da:	48 85 c0             	test   %rax,%rax
    24dd:	74 1d                	je     24fc <emit_ancillary_info+0xf9>
    24df:	48 8b 45 e0          	mov    -0x20(%rbp),%rax
    24e3:	48 8b 10             	mov    (%rax),%rdx
    24e6:	48 8b 85 58 ff ff ff 	mov    -0xa8(%rbp),%rax
    24ed:	48 89 d6             	mov    %rdx,%rsi
    24f0:	48 89 c7             	mov    %rax,%rdi
    24f3:	e8 a8 fc ff ff       	callq  21a0 <strcmp@plt>
    24f8:	85 c0                	test   %eax,%eax
    24fa:	75 d2                	jne    24ce <emit_ancillary_info+0xcb>
    24fc:	48 8b 45 e0          	mov    -0x20(%rbp),%rax
    2500:	48 8b 40 08          	mov    0x8(%rax),%rax
    2504:	48 85 c0             	test   %rax,%rax
    2507:	74 0c                	je     2515 <emit_ancillary_info+0x112>
    2509:	48 8b 45 e0          	mov    -0x20(%rbp),%rax
    250d:	48 8b 40 08          	mov    0x8(%rax),%rax
    2511:	48 89 45 e8          	mov    %rax,-0x18(%rbp)
    2515:	48 8d 3d a0 4b 00 00 	lea    0x4ba0(%rip),%rdi        # 70bc <_IO_stdin_used+0xbc>
    251c:	e8 ef fb ff ff       	callq  2110 <gettext@plt>
    2521:	48 8d 15 b0 4b 00 00 	lea    0x4bb0(%rip),%rdx        # 70d8 <_IO_stdin_used+0xd8>
    2528:	48 8d 35 d1 4b 00 00 	lea    0x4bd1(%rip),%rsi        # 7100 <_IO_stdin_used+0x100>
    252f:	48 89 c7             	mov    %rax,%rdi
    2532:	b8 00 00 00 00       	mov    $0x0,%eax
    2537:	e8 e4 fb ff ff       	callq  2120 <printf@plt>
    253c:	be 00 00 00 00       	mov    $0x0,%esi
    2541:	bf 05 00 00 00       	mov    $0x5,%edi
    2546:	e8 05 fd ff ff       	callq  2250 <setlocale@plt>
    254b:	48 89 45 d8          	mov    %rax,-0x28(%rbp)
    254f:	48 83 7d d8 00       	cmpq   $0x0,-0x28(%rbp)
    2554:	74 3a                	je     2590 <emit_ancillary_info+0x18d>
    2556:	48 8b 45 d8          	mov    -0x28(%rbp),%rax
    255a:	ba 03 00 00 00       	mov    $0x3,%edx
    255f:	48 8d 35 a8 4b 00 00 	lea    0x4ba8(%rip),%rsi        # 710e <_IO_stdin_used+0x10e>
    2566:	48 89 c7             	mov    %rax,%rdi
    2569:	e8 f2 fa ff ff       	callq  2060 <strncmp@plt>
    256e:	85 c0                	test   %eax,%eax
    2570:	74 1e                	je     2590 <emit_ancillary_info+0x18d>
    2572:	48 8b 1d af 7c 00 00 	mov    0x7caf(%rip),%rbx        # a228 <stdout@@GLIBC_2.2.5>
    2579:	48 8d 3d 98 4b 00 00 	lea    0x4b98(%rip),%rdi        # 7118 <_IO_stdin_used+0x118>
    2580:	e8 8b fb ff ff       	callq  2110 <gettext@plt>
    2585:	48 89 de             	mov    %rbx,%rsi
    2588:	48 89 c7             	mov    %rax,%rdi
    258b:	e8 e0 fb ff ff       	callq  2170 <fputs_unlocked@plt>
    2590:	48 8b 85 58 ff ff ff 	mov    -0xa8(%rbp),%rax
    2597:	48 8d 35 b5 4a 00 00 	lea    0x4ab5(%rip),%rsi        # 7053 <_IO_stdin_used+0x53>
    259e:	48 89 c7             	mov    %rax,%rdi
    25a1:	e8 fa fb ff ff       	callq  21a0 <strcmp@plt>
    25a6:	85 c0                	test   %eax,%eax
    25a8:	74 09                	je     25b3 <emit_ancillary_info+0x1b0>
    25aa:	48 8b 85 58 ff ff ff 	mov    -0xa8(%rbp),%rax
    25b1:	eb 07                	jmp    25ba <emit_ancillary_info+0x1b7>
    25b3:	48 8d 05 a5 4b 00 00 	lea    0x4ba5(%rip),%rax        # 715f <_IO_stdin_used+0x15f>
    25ba:	48 89 45 d0          	mov    %rax,-0x30(%rbp)
    25be:	48 8d 3d 9f 4b 00 00 	lea    0x4b9f(%rip),%rdi        # 7164 <_IO_stdin_used+0x164>
    25c5:	e8 46 fb ff ff       	callq  2110 <gettext@plt>
    25ca:	48 89 c1             	mov    %rax,%rcx
    25cd:	48 8b 45 d0          	mov    -0x30(%rbp),%rax
    25d1:	48 89 c2             	mov    %rax,%rdx
    25d4:	48 8d 35 fd 4a 00 00 	lea    0x4afd(%rip),%rsi        # 70d8 <_IO_stdin_used+0xd8>
    25db:	48 89 cf             	mov    %rcx,%rdi
    25de:	b8 00 00 00 00       	mov    $0x0,%eax
    25e3:	e8 38 fb ff ff       	callq  2120 <printf@plt>
    25e8:	48 8b 45 e8          	mov    -0x18(%rbp),%rax
    25ec:	48 3b 85 58 ff ff ff 	cmp    -0xa8(%rbp),%rax
    25f3:	75 09                	jne    25fe <emit_ancillary_info+0x1fb>
    25f5:	48 8d 1d 83 4b 00 00 	lea    0x4b83(%rip),%rbx        # 717f <_IO_stdin_used+0x17f>
    25fc:	eb 07                	jmp    2605 <emit_ancillary_info+0x202>
    25fe:	48 8d 1d 86 4b 00 00 	lea    0x4b86(%rip),%rbx        # 718b <_IO_stdin_used+0x18b>
    2605:	48 8d 3d 84 4b 00 00 	lea    0x4b84(%rip),%rdi        # 7190 <_IO_stdin_used+0x190>
    260c:	e8 ff fa ff ff       	callq  2110 <gettext@plt>
    2611:	48 89 c1             	mov    %rax,%rcx
    2614:	48 8b 45 e8          	mov    -0x18(%rbp),%rax
    2618:	48 89 da             	mov    %rbx,%rdx
    261b:	48 89 c6             	mov    %rax,%rsi
    261e:	48 89 cf             	mov    %rcx,%rdi
    2621:	b8 00 00 00 00       	mov    $0x0,%eax
    2626:	e8 f5 fa ff ff       	callq  2120 <printf@plt>
    262b:	90                   	nop
    262c:	48 8b 5d f8          	mov    -0x8(%rbp),%rbx
    2630:	c9                   	leaveq 
    2631:	c3                   	retq   

0000000000002632 <usage>:
    2632:	55                   	push   %rbp
    2633:	48 89 e5             	mov    %rsp,%rbp
    2636:	41 56                	push   %r14
    2638:	41 55                	push   %r13
    263a:	41 54                	push   %r12
    263c:	53                   	push   %rbx
    263d:	48 83 ec 10          	sub    $0x10,%rsp
    2641:	89 7d dc             	mov    %edi,-0x24(%rbp)
    2644:	83 7d dc 00          	cmpl   $0x0,-0x24(%rbp)
    2648:	74 35                	je     267f <usage+0x4d>
    264a:	48 8b 1d 2f 7c 00 00 	mov    0x7c2f(%rip),%rbx        # a280 <program_name>
    2651:	48 8d 3d 90 4b 00 00 	lea    0x4b90(%rip),%rdi        # 71e8 <_IO_stdin_used+0x1e8>
    2658:	e8 b3 fa ff ff       	callq  2110 <gettext@plt>
    265d:	48 89 c1             	mov    %rax,%rcx
    2660:	48 8b 05 f9 7b 00 00 	mov    0x7bf9(%rip),%rax        # a260 <stderr@@GLIBC_2.2.5>
    2667:	48 89 da             	mov    %rbx,%rdx
    266a:	48 89 ce             	mov    %rcx,%rsi
    266d:	48 89 c7             	mov    %rax,%rdi
    2670:	b8 00 00 00 00       	mov    $0x0,%eax
    2675:	e8 46 fb ff ff       	callq  21c0 <fprintf@plt>
    267a:	e9 f7 00 00 00       	jmpq   2776 <usage+0x144>
    267f:	4c 8b 25 fa 7b 00 00 	mov    0x7bfa(%rip),%r12        # a280 <program_name>
    2686:	48 8b 1d f3 7b 00 00 	mov    0x7bf3(%rip),%rbx        # a280 <program_name>
    268d:	48 8d 3d 7c 4b 00 00 	lea    0x4b7c(%rip),%rdi        # 7210 <_IO_stdin_used+0x210>
    2694:	e8 77 fa ff ff       	callq  2110 <gettext@plt>
    2699:	4c 89 e2             	mov    %r12,%rdx
    269c:	48 89 de             	mov    %rbx,%rsi
    269f:	48 89 c7             	mov    %rax,%rdi
    26a2:	b8 00 00 00 00       	mov    $0x0,%eax
    26a7:	e8 74 fa ff ff       	callq  2120 <printf@plt>
    26ac:	48 8b 1d 75 7b 00 00 	mov    0x7b75(%rip),%rbx        # a228 <stdout@@GLIBC_2.2.5>
    26b3:	48 8d 3d 8e 4b 00 00 	lea    0x4b8e(%rip),%rdi        # 7248 <_IO_stdin_used+0x248>
    26ba:	e8 51 fa ff ff       	callq  2110 <gettext@plt>
    26bf:	48 89 de             	mov    %rbx,%rsi
    26c2:	48 89 c7             	mov    %rax,%rdi
    26c5:	e8 a6 fa ff ff       	callq  2170 <fputs_unlocked@plt>
    26ca:	e8 06 fd ff ff       	callq  23d5 <emit_mandatory_arg_note>
    26cf:	48 8b 1d 52 7b 00 00 	mov    0x7b52(%rip),%rbx        # a228 <stdout@@GLIBC_2.2.5>
    26d6:	48 8d 3d d3 4b 00 00 	lea    0x4bd3(%rip),%rdi        # 72b0 <_IO_stdin_used+0x2b0>
    26dd:	e8 2e fa ff ff       	callq  2110 <gettext@plt>
    26e2:	48 89 de             	mov    %rbx,%rsi
    26e5:	48 89 c7             	mov    %rax,%rdi
    26e8:	e8 83 fa ff ff       	callq  2170 <fputs_unlocked@plt>
    26ed:	48 8b 1d 34 7b 00 00 	mov    0x7b34(%rip),%rbx        # a228 <stdout@@GLIBC_2.2.5>
    26f4:	48 8d 3d 85 4c 00 00 	lea    0x4c85(%rip),%rdi        # 7380 <_IO_stdin_used+0x380>
    26fb:	e8 10 fa ff ff       	callq  2110 <gettext@plt>
    2700:	48 89 de             	mov    %rbx,%rsi
    2703:	48 89 c7             	mov    %rax,%rdi
    2706:	e8 65 fa ff ff       	callq  2170 <fputs_unlocked@plt>
    270b:	48 8b 1d 16 7b 00 00 	mov    0x7b16(%rip),%rbx        # a228 <stdout@@GLIBC_2.2.5>
    2712:	48 8d 3d 97 4c 00 00 	lea    0x4c97(%rip),%rdi        # 73b0 <_IO_stdin_used+0x3b0>
    2719:	e8 f2 f9 ff ff       	callq  2110 <gettext@plt>
    271e:	48 89 de             	mov    %rbx,%rsi
    2721:	48 89 c7             	mov    %rax,%rdi
    2724:	e8 47 fa ff ff       	callq  2170 <fputs_unlocked@plt>
    2729:	4c 8b 35 50 7b 00 00 	mov    0x7b50(%rip),%r14        # a280 <program_name>
    2730:	4c 8b 2d 49 7b 00 00 	mov    0x7b49(%rip),%r13        # a280 <program_name>
    2737:	4c 8b 25 42 7b 00 00 	mov    0x7b42(%rip),%r12        # a280 <program_name>
    273e:	48 8b 1d 3b 7b 00 00 	mov    0x7b3b(%rip),%rbx        # a280 <program_name>
    2745:	48 8d 3d a4 4c 00 00 	lea    0x4ca4(%rip),%rdi        # 73f0 <_IO_stdin_used+0x3f0>
    274c:	e8 bf f9 ff ff       	callq  2110 <gettext@plt>
    2751:	4d 89 f0             	mov    %r14,%r8
    2754:	4c 89 e9             	mov    %r13,%rcx
    2757:	4c 89 e2             	mov    %r12,%rdx
    275a:	48 89 de             	mov    %rbx,%rsi
    275d:	48 89 c7             	mov    %rax,%rdi
    2760:	b8 00 00 00 00       	mov    $0x0,%eax
    2765:	e8 b6 f9 ff ff       	callq  2120 <printf@plt>
    276a:	48 8d 3d 38 4d 00 00 	lea    0x4d38(%rip),%rdi        # 74a9 <_IO_stdin_used+0x4a9>
    2771:	e8 8d fc ff ff       	callq  2403 <emit_ancillary_info>
    2776:	8b 45 dc             	mov    -0x24(%rbp),%eax
    2779:	89 c7                	mov    %eax,%edi
    277b:	e8 10 fb ff ff       	callq  2290 <exit@plt>

0000000000002780 <remove_suffix>:
    2780:	55                   	push   %rbp
    2781:	48 89 e5             	mov    %rsp,%rbp
    2784:	48 83 ec 20          	sub    $0x20,%rsp
    2788:	48 89 7d e8          	mov    %rdi,-0x18(%rbp)
    278c:	48 89 75 e0          	mov    %rsi,-0x20(%rbp)
    2790:	48 8b 45 e8          	mov    -0x18(%rbp),%rax
    2794:	48 89 c7             	mov    %rax,%rdi
    2797:	e8 44 f9 ff ff       	callq  20e0 <strlen@plt>
    279c:	48 8b 55 e8          	mov    -0x18(%rbp),%rdx
    27a0:	48 01 d0             	add    %rdx,%rax
    27a3:	48 89 45 f8          	mov    %rax,-0x8(%rbp)
    27a7:	48 8b 45 e0          	mov    -0x20(%rbp),%rax
    27ab:	48 89 c7             	mov    %rax,%rdi
    27ae:	e8 2d f9 ff ff       	callq  20e0 <strlen@plt>
    27b3:	48 8b 55 e0          	mov    -0x20(%rbp),%rdx
    27b7:	48 01 d0             	add    %rdx,%rax
    27ba:	48 89 45 f0          	mov    %rax,-0x10(%rbp)
    27be:	eb 1c                	jmp    27dc <remove_suffix+0x5c>
    27c0:	48 83 6d f8 01       	subq   $0x1,-0x8(%rbp)
    27c5:	48 8b 45 f8          	mov    -0x8(%rbp),%rax
    27c9:	0f b6 10             	movzbl (%rax),%edx
    27cc:	48 83 6d f0 01       	subq   $0x1,-0x10(%rbp)
    27d1:	48 8b 45 f0          	mov    -0x10(%rbp),%rax
    27d5:	0f b6 00             	movzbl (%rax),%eax
    27d8:	38 c2                	cmp    %al,%dl
    27da:	75 27                	jne    2803 <remove_suffix+0x83>
    27dc:	48 8b 45 f8          	mov    -0x8(%rbp),%rax
    27e0:	48 3b 45 e8          	cmp    -0x18(%rbp),%rax
    27e4:	76 0a                	jbe    27f0 <remove_suffix+0x70>
    27e6:	48 8b 45 f0          	mov    -0x10(%rbp),%rax
    27ea:	48 3b 45 e0          	cmp    -0x20(%rbp),%rax
    27ee:	77 d0                	ja     27c0 <remove_suffix+0x40>
    27f0:	48 8b 45 f8          	mov    -0x8(%rbp),%rax
    27f4:	48 3b 45 e8          	cmp    -0x18(%rbp),%rax
    27f8:	76 0a                	jbe    2804 <remove_suffix+0x84>
    27fa:	48 8b 45 f8          	mov    -0x8(%rbp),%rax
    27fe:	c6 00 00             	movb   $0x0,(%rax)
    2801:	eb 01                	jmp    2804 <remove_suffix+0x84>
    2803:	90                   	nop
    2804:	c9                   	leaveq 
    2805:	c3                   	retq   

0000000000002806 <perform_basename>:
    2806:	55                   	push   %rbp
    2807:	48 89 e5             	mov    %rsp,%rbp
    280a:	48 83 ec 30          	sub    $0x30,%rsp
    280e:	48 89 7d e8          	mov    %rdi,-0x18(%rbp)
    2812:	48 89 75 e0          	mov    %rsi,-0x20(%rbp)
    2816:	89 d0                	mov    %edx,%eax
    2818:	88 45 dc             	mov    %al,-0x24(%rbp)
    281b:	48 8b 45 e8          	mov    -0x18(%rbp),%rax
    281f:	48 89 c7             	mov    %rax,%rdi
    2822:	e8 8e 04 00 00       	callq  2cb5 <base_name>
    2827:	48 89 45 f8          	mov    %rax,-0x8(%rbp)
    282b:	48 8b 45 f8          	mov    -0x8(%rbp),%rax
    282f:	48 89 c7             	mov    %rax,%rdi
    2832:	e8 6d 05 00 00       	callq  2da4 <strip_trailing_slashes>
    2837:	48 83 7d e0 00       	cmpq   $0x0,-0x20(%rbp)
    283c:	74 1e                	je     285c <perform_basename+0x56>
    283e:	48 8b 45 f8          	mov    -0x8(%rbp),%rax
    2842:	0f b6 00             	movzbl (%rax),%eax
    2845:	3c 2f                	cmp    $0x2f,%al
    2847:	74 13                	je     285c <perform_basename+0x56>
    2849:	48 8b 55 e0          	mov    -0x20(%rbp),%rdx
    284d:	48 8b 45 f8          	mov    -0x8(%rbp),%rax
    2851:	48 89 d6             	mov    %rdx,%rsi
    2854:	48 89 c7             	mov    %rax,%rdi
    2857:	e8 24 ff ff ff       	callq  2780 <remove_suffix>
    285c:	48 8b 15 c5 79 00 00 	mov    0x79c5(%rip),%rdx        # a228 <stdout@@GLIBC_2.2.5>
    2863:	48 8b 45 f8          	mov    -0x8(%rbp),%rax
    2867:	48 89 d6             	mov    %rdx,%rsi
    286a:	48 89 c7             	mov    %rax,%rdi
    286d:	e8 fe f8 ff ff       	callq  2170 <fputs_unlocked@plt>
    2872:	80 7d dc 00          	cmpb   $0x0,-0x24(%rbp)
    2876:	74 07                	je     287f <perform_basename+0x79>
    2878:	b8 00 00 00 00       	mov    $0x0,%eax
    287d:	eb 05                	jmp    2884 <perform_basename+0x7e>
    287f:	b8 0a 00 00 00       	mov    $0xa,%eax
    2884:	89 c7                	mov    %eax,%edi
    2886:	e8 55 f9 ff ff       	callq  21e0 <putchar_unlocked@plt>
    288b:	48 8b 45 f8          	mov    -0x8(%rbp),%rax
    288f:	48 89 c7             	mov    %rax,%rdi
    2892:	e8 6f 05 00 00       	callq  2e06 <rpl_free>
    2897:	90                   	nop
    2898:	c9                   	leaveq 
    2899:	c3                   	retq   

000000000000289a <main>:
    289a:	55                   	push   %rbp
    289b:	48 89 e5             	mov    %rsp,%rbp
    289e:	53                   	push   %rbx
    289f:	48 83 ec 58          	sub    $0x58,%rsp
    28a3:	89 7d ac             	mov    %edi,-0x54(%rbp)
    28a6:	48 89 75 a0          	mov    %rsi,-0x60(%rbp)
    28aa:	c6 45 ef 00          	movb   $0x0,-0x11(%rbp)
    28ae:	c6 45 ee 00          	movb   $0x0,-0x12(%rbp)
    28b2:	48 c7 45 e0 00 00 00 	movq   $0x0,-0x20(%rbp)
    28b9:	00 
    28ba:	48 8b 45 a0          	mov    -0x60(%rbp),%rax
    28be:	48 8b 00             	mov    (%rax),%rax
    28c1:	48 89 c7             	mov    %rax,%rdi
    28c4:	e8 99 05 00 00       	callq  2e62 <set_program_name>
    28c9:	48 8d 35 bb 48 00 00 	lea    0x48bb(%rip),%rsi        # 718b <_IO_stdin_used+0x18b>
    28d0:	bf 06 00 00 00       	mov    $0x6,%edi
    28d5:	e8 76 f9 ff ff       	callq  2250 <setlocale@plt>
    28da:	48 8d 35 d7 4b 00 00 	lea    0x4bd7(%rip),%rsi        # 74b8 <_IO_stdin_used+0x4b8>
    28e1:	48 8d 3d 7d 47 00 00 	lea    0x477d(%rip),%rdi        # 7065 <_IO_stdin_used+0x65>
    28e8:	e8 d3 f7 ff ff       	callq  20c0 <bindtextdomain@plt>
    28ed:	48 8d 3d 71 47 00 00 	lea    0x4771(%rip),%rdi        # 7065 <_IO_stdin_used+0x65>
    28f4:	e8 a7 f7 ff ff       	callq  20a0 <textdomain@plt>
    28f9:	48 8d 05 a0 02 00 00 	lea    0x2a0(%rip),%rax        # 2ba0 <close_stdout>
    2900:	48 89 c7             	mov    %rax,%rdi
    2903:	e8 28 3b 00 00       	callq  6430 <atexit>
    2908:	48 8b 75 a0          	mov    -0x60(%rbp),%rsi
    290c:	8b 45 ac             	mov    -0x54(%rbp),%eax
    290f:	41 b8 00 00 00 00    	mov    $0x0,%r8d
    2915:	48 8d 0d c4 73 00 00 	lea    0x73c4(%rip),%rcx        # 9ce0 <longopts>
    291c:	48 8d 15 ce 4b 00 00 	lea    0x4bce(%rip),%rdx        # 74f1 <_IO_stdin_used+0x4f1>
    2923:	89 c7                	mov    %eax,%edi
    2925:	e8 c6 f7 ff ff       	callq  20f0 <getopt_long@plt>
    292a:	89 45 dc             	mov    %eax,-0x24(%rbp)
    292d:	83 7d dc ff          	cmpl   $0xffffffff,-0x24(%rbp)
    2931:	0f 84 b3 00 00 00    	je     29ea <main+0x150>
    2937:	83 7d dc 7a          	cmpl   $0x7a,-0x24(%rbp)
    293b:	74 4b                	je     2988 <main+0xee>
    293d:	83 7d dc 7a          	cmpl   $0x7a,-0x24(%rbp)
    2941:	0f 8f 94 00 00 00    	jg     29db <main+0x141>
    2947:	83 7d dc 73          	cmpl   $0x73,-0x24(%rbp)
    294b:	74 2a                	je     2977 <main+0xdd>
    294d:	83 7d dc 73          	cmpl   $0x73,-0x24(%rbp)
    2951:	0f 8f 84 00 00 00    	jg     29db <main+0x141>
    2957:	83 7d dc 61          	cmpl   $0x61,-0x24(%rbp)
    295b:	74 25                	je     2982 <main+0xe8>
    295d:	83 7d dc 61          	cmpl   $0x61,-0x24(%rbp)
    2961:	7f 78                	jg     29db <main+0x141>
    2963:	81 7d dc 7d ff ff ff 	cmpl   $0xffffff7d,-0x24(%rbp)
    296a:	74 2c                	je     2998 <main+0xfe>
    296c:	81 7d dc 7e ff ff ff 	cmpl   $0xffffff7e,-0x24(%rbp)
    2973:	74 19                	je     298e <main+0xf4>
    2975:	eb 64                	jmp    29db <main+0x141>
    2977:	48 8b 05 c2 78 00 00 	mov    0x78c2(%rip),%rax        # a240 <optarg@@GLIBC_2.2.5>
    297e:	48 89 45 e0          	mov    %rax,-0x20(%rbp)
    2982:	c6 45 ef 01          	movb   $0x1,-0x11(%rbp)
    2986:	eb 5d                	jmp    29e5 <main+0x14b>
    2988:	c6 45 ee 01          	movb   $0x1,-0x12(%rbp)
    298c:	eb 57                	jmp    29e5 <main+0x14b>
    298e:	bf 00 00 00 00       	mov    $0x0,%edi
    2993:	e8 9a fc ff ff       	callq  2632 <usage>
    2998:	48 8b 15 f1 77 00 00 	mov    0x77f1(%rip),%rdx        # a190 <Version>
    299f:	48 8b 05 82 78 00 00 	mov    0x7882(%rip),%rax        # a228 <stdout@@GLIBC_2.2.5>
    29a6:	41 b9 00 00 00 00    	mov    $0x0,%r9d
    29ac:	4c 8d 05 44 4b 00 00 	lea    0x4b44(%rip),%r8        # 74f7 <_IO_stdin_used+0x4f7>
    29b3:	48 89 d1             	mov    %rdx,%rcx
    29b6:	48 8d 15 43 47 00 00 	lea    0x4743(%rip),%rdx        # 7100 <_IO_stdin_used+0x100>
    29bd:	48 8d 35 e5 4a 00 00 	lea    0x4ae5(%rip),%rsi        # 74a9 <_IO_stdin_used+0x4a9>
    29c4:	48 89 c7             	mov    %rax,%rdi
    29c7:	b8 00 00 00 00       	mov    $0x0,%eax
    29cc:	e8 39 29 00 00       	callq  530a <version_etc>
    29d1:	bf 00 00 00 00       	mov    $0x0,%edi
    29d6:	e8 b5 f8 ff ff       	callq  2290 <exit@plt>
    29db:	bf 01 00 00 00       	mov    $0x1,%edi
    29e0:	e8 4d fc ff ff       	callq  2632 <usage>
    29e5:	e9 1e ff ff ff       	jmpq   2908 <main+0x6e>
    29ea:	90                   	nop
    29eb:	8b 05 3f 78 00 00    	mov    0x783f(%rip),%eax        # a230 <optind@@GLIBC_2.2.5>
    29f1:	39 45 ac             	cmp    %eax,-0x54(%rbp)
    29f4:	7f 41                	jg     2a37 <main+0x19d>
    29f6:	48 8d 3d 0a 4b 00 00 	lea    0x4b0a(%rip),%rdi        # 7507 <_IO_stdin_used+0x507>
    29fd:	e8 0e f7 ff ff       	callq  2110 <gettext@plt>
    2a02:	c7 45 d8 00 00 00 00 	movl   $0x0,-0x28(%rbp)
    2a09:	c7 45 d4 00 00 00 00 	movl   $0x0,-0x2c(%rbp)
    2a10:	48 89 45 c8          	mov    %rax,-0x38(%rbp)
    2a14:	48 8b 55 c8          	mov    -0x38(%rbp),%rdx
    2a18:	8b 4d d4             	mov    -0x2c(%rbp),%ecx
    2a1b:	8b 45 d8             	mov    -0x28(%rbp),%eax
    2a1e:	89 ce                	mov    %ecx,%esi
    2a20:	89 c7                	mov    %eax,%edi
    2a22:	b8 00 00 00 00       	mov    $0x0,%eax
    2a27:	e8 34 f8 ff ff       	callq  2260 <error@plt>
    2a2c:	90                   	nop
    2a2d:	bf 01 00 00 00       	mov    $0x1,%edi
    2a32:	e8 fb fb ff ff       	callq  2632 <usage>
    2a37:	0f b6 45 ef          	movzbl -0x11(%rbp),%eax
    2a3b:	83 f0 01             	xor    $0x1,%eax
    2a3e:	84 c0                	test   %al,%al
    2a40:	74 79                	je     2abb <main+0x221>
    2a42:	8b 05 e8 77 00 00    	mov    0x77e8(%rip),%eax        # a230 <optind@@GLIBC_2.2.5>
    2a48:	83 c0 02             	add    $0x2,%eax
    2a4b:	39 45 ac             	cmp    %eax,-0x54(%rbp)
    2a4e:	7e 6b                	jle    2abb <main+0x221>
    2a50:	8b 05 da 77 00 00    	mov    0x77da(%rip),%eax        # a230 <optind@@GLIBC_2.2.5>
    2a56:	48 98                	cltq   
    2a58:	48 83 c0 02          	add    $0x2,%rax
    2a5c:	48 8d 14 c5 00 00 00 	lea    0x0(,%rax,8),%rdx
    2a63:	00 
    2a64:	48 8b 45 a0          	mov    -0x60(%rbp),%rax
    2a68:	48 01 d0             	add    %rdx,%rax
    2a6b:	48 8b 00             	mov    (%rax),%rax
    2a6e:	48 89 c7             	mov    %rax,%rdi
    2a71:	e8 6a 21 00 00       	callq  4be0 <quote>
    2a76:	48 89 c3             	mov    %rax,%rbx
    2a79:	48 8d 3d 97 4a 00 00 	lea    0x4a97(%rip),%rdi        # 7517 <_IO_stdin_used+0x517>
    2a80:	e8 8b f6 ff ff       	callq  2110 <gettext@plt>
    2a85:	c7 45 c4 00 00 00 00 	movl   $0x0,-0x3c(%rbp)
    2a8c:	c7 45 c0 00 00 00 00 	movl   $0x0,-0x40(%rbp)
    2a93:	48 89 45 b8          	mov    %rax,-0x48(%rbp)
    2a97:	48 8b 55 b8          	mov    -0x48(%rbp),%rdx
    2a9b:	8b 75 c0             	mov    -0x40(%rbp),%esi
    2a9e:	8b 45 c4             	mov    -0x3c(%rbp),%eax
    2aa1:	48 89 d9             	mov    %rbx,%rcx
    2aa4:	89 c7                	mov    %eax,%edi
    2aa6:	b8 00 00 00 00       	mov    $0x0,%eax
    2aab:	e8 b0 f7 ff ff       	callq  2260 <error@plt>
    2ab0:	90                   	nop
    2ab1:	bf 01 00 00 00       	mov    $0x1,%edi
    2ab6:	e8 77 fb ff ff       	callq  2632 <usage>
    2abb:	80 7d ef 00          	cmpb   $0x0,-0x11(%rbp)
    2abf:	74 4b                	je     2b0c <main+0x272>
    2ac1:	eb 3c                	jmp    2aff <main+0x265>
    2ac3:	0f b6 55 ee          	movzbl -0x12(%rbp),%edx
    2ac7:	8b 05 63 77 00 00    	mov    0x7763(%rip),%eax        # a230 <optind@@GLIBC_2.2.5>
    2acd:	48 98                	cltq   
    2acf:	48 8d 0c c5 00 00 00 	lea    0x0(,%rax,8),%rcx
    2ad6:	00 
    2ad7:	48 8b 45 a0          	mov    -0x60(%rbp),%rax
    2adb:	48 01 c8             	add    %rcx,%rax
    2ade:	48 8b 00             	mov    (%rax),%rax
    2ae1:	48 8b 4d e0          	mov    -0x20(%rbp),%rcx
    2ae5:	48 89 ce             	mov    %rcx,%rsi
    2ae8:	48 89 c7             	mov    %rax,%rdi
    2aeb:	e8 16 fd ff ff       	callq  2806 <perform_basename>
    2af0:	8b 05 3a 77 00 00    	mov    0x773a(%rip),%eax        # a230 <optind@@GLIBC_2.2.5>
    2af6:	83 c0 01             	add    $0x1,%eax
    2af9:	89 05 31 77 00 00    	mov    %eax,0x7731(%rip)        # a230 <optind@@GLIBC_2.2.5>
    2aff:	8b 05 2b 77 00 00    	mov    0x772b(%rip),%eax        # a230 <optind@@GLIBC_2.2.5>
    2b05:	39 45 ac             	cmp    %eax,-0x54(%rbp)
    2b08:	7f b9                	jg     2ac3 <main+0x229>
    2b0a:	eb 5d                	jmp    2b69 <main+0x2cf>
    2b0c:	0f b6 55 ee          	movzbl -0x12(%rbp),%edx
    2b10:	8b 05 1a 77 00 00    	mov    0x771a(%rip),%eax        # a230 <optind@@GLIBC_2.2.5>
    2b16:	83 c0 02             	add    $0x2,%eax
    2b19:	39 45 ac             	cmp    %eax,-0x54(%rbp)
    2b1c:	75 20                	jne    2b3e <main+0x2a4>
    2b1e:	8b 05 0c 77 00 00    	mov    0x770c(%rip),%eax        # a230 <optind@@GLIBC_2.2.5>
    2b24:	48 98                	cltq   
    2b26:	48 83 c0 01          	add    $0x1,%rax
    2b2a:	48 8d 0c c5 00 00 00 	lea    0x0(,%rax,8),%rcx
    2b31:	00 
    2b32:	48 8b 45 a0          	mov    -0x60(%rbp),%rax
    2b36:	48 01 c8             	add    %rcx,%rax
    2b39:	48 8b 00             	mov    (%rax),%rax
    2b3c:	eb 05                	jmp    2b43 <main+0x2a9>
    2b3e:	b8 00 00 00 00       	mov    $0x0,%eax
    2b43:	8b 0d e7 76 00 00    	mov    0x76e7(%rip),%ecx        # a230 <optind@@GLIBC_2.2.5>
    2b49:	48 63 c9             	movslq %ecx,%rcx
    2b4c:	48 8d 34 cd 00 00 00 	lea    0x0(,%rcx,8),%rsi
    2b53:	00 
    2b54:	48 8b 4d a0          	mov    -0x60(%rbp),%rcx
    2b58:	48 01 f1             	add    %rsi,%rcx
    2b5b:	48 8b 09             	mov    (%rcx),%rcx
    2b5e:	48 89 c6             	mov    %rax,%rsi
    2b61:	48 89 cf             	mov    %rcx,%rdi
    2b64:	e8 9d fc ff ff       	callq  2806 <perform_basename>
    2b69:	b8 00 00 00 00       	mov    $0x0,%eax
    2b6e:	48 8b 5d f8          	mov    -0x8(%rbp),%rbx
    2b72:	c9                   	leaveq 
    2b73:	c3                   	retq   

0000000000002b74 <close_stdout_set_file_name>:
    2b74:	55                   	push   %rbp
    2b75:	48 89 e5             	mov    %rsp,%rbp
    2b78:	48 89 7d f8          	mov    %rdi,-0x8(%rbp)
    2b7c:	48 8b 45 f8          	mov    -0x8(%rbp),%rax
    2b80:	48 89 05 e9 76 00 00 	mov    %rax,0x76e9(%rip)        # a270 <file_name>
    2b87:	90                   	nop
    2b88:	5d                   	pop    %rbp
    2b89:	c3                   	retq   

0000000000002b8a <close_stdout_set_ignore_EPIPE>:
    2b8a:	55                   	push   %rbp
    2b8b:	48 89 e5             	mov    %rsp,%rbp
    2b8e:	89 f8                	mov    %edi,%eax
    2b90:	88 45 fc             	mov    %al,-0x4(%rbp)
    2b93:	0f b6 45 fc          	movzbl -0x4(%rbp),%eax
    2b97:	88 05 db 76 00 00    	mov    %al,0x76db(%rip)        # a278 <ignore_EPIPE>
    2b9d:	90                   	nop
    2b9e:	5d                   	pop    %rbp
    2b9f:	c3                   	retq   

0000000000002ba0 <close_stdout>:
    2ba0:	55                   	push   %rbp
    2ba1:	48 89 e5             	mov    %rsp,%rbp
    2ba4:	53                   	push   %rbx
    2ba5:	48 83 ec 38          	sub    $0x38,%rsp
    2ba9:	48 8b 05 78 76 00 00 	mov    0x7678(%rip),%rax        # a228 <stdout@@GLIBC_2.2.5>
    2bb0:	48 89 c7             	mov    %rax,%rdi
    2bb3:	e8 f3 2f 00 00       	callq  5bab <close_stream>
    2bb8:	85 c0                	test   %eax,%eax
    2bba:	0f 84 ce 00 00 00    	je     2c8e <close_stdout+0xee>
    2bc0:	0f b6 05 b1 76 00 00 	movzbl 0x76b1(%rip),%eax        # a278 <ignore_EPIPE>
    2bc7:	83 f0 01             	xor    $0x1,%eax
    2bca:	84 c0                	test   %al,%al
    2bcc:	75 10                	jne    2bde <close_stdout+0x3e>
    2bce:	e8 7d f4 ff ff       	callq  2050 <__errno_location@plt>
    2bd3:	8b 00                	mov    (%rax),%eax
    2bd5:	83 f8 20             	cmp    $0x20,%eax
    2bd8:	0f 84 b0 00 00 00    	je     2c8e <close_stdout+0xee>
    2bde:	48 8d 3d 50 49 00 00 	lea    0x4950(%rip),%rdi        # 7535 <_IO_stdin_used+0x535>
    2be5:	e8 26 f5 ff ff       	callq  2110 <gettext@plt>
    2bea:	48 89 45 e8          	mov    %rax,-0x18(%rbp)
    2bee:	48 8b 05 7b 76 00 00 	mov    0x767b(%rip),%rax        # a270 <file_name>
    2bf5:	48 85 c0             	test   %rax,%rax
    2bf8:	74 50                	je     2c4a <close_stdout+0xaa>
    2bfa:	48 8b 05 6f 76 00 00 	mov    0x766f(%rip),%rax        # a270 <file_name>
    2c01:	48 89 c7             	mov    %rax,%rdi
    2c04:	e8 3f 1d 00 00       	callq  4948 <quotearg_colon>
    2c09:	48 89 c3             	mov    %rax,%rbx
    2c0c:	e8 3f f4 ff ff       	callq  2050 <__errno_location@plt>
    2c11:	8b 00                	mov    (%rax),%eax
    2c13:	c7 45 e4 00 00 00 00 	movl   $0x0,-0x1c(%rbp)
    2c1a:	89 45 e0             	mov    %eax,-0x20(%rbp)
    2c1d:	48 8d 05 1d 49 00 00 	lea    0x491d(%rip),%rax        # 7541 <_IO_stdin_used+0x541>
    2c24:	48 89 45 d8          	mov    %rax,-0x28(%rbp)
    2c28:	48 8b 4d e8          	mov    -0x18(%rbp),%rcx
    2c2c:	48 8b 55 d8          	mov    -0x28(%rbp),%rdx
    2c30:	8b 75 e0             	mov    -0x20(%rbp),%esi
    2c33:	8b 45 e4             	mov    -0x1c(%rbp),%eax
    2c36:	49 89 c8             	mov    %rcx,%r8
    2c39:	48 89 d9             	mov    %rbx,%rcx
    2c3c:	89 c7                	mov    %eax,%edi
    2c3e:	b8 00 00 00 00       	mov    $0x0,%eax
    2c43:	e8 18 f6 ff ff       	callq  2260 <error@plt>
    2c48:	eb 37                	jmp    2c81 <close_stdout+0xe1>
    2c4a:	e8 01 f4 ff ff       	callq  2050 <__errno_location@plt>
    2c4f:	8b 00                	mov    (%rax),%eax
    2c51:	c7 45 d4 00 00 00 00 	movl   $0x0,-0x2c(%rbp)
    2c58:	89 45 d0             	mov    %eax,-0x30(%rbp)
    2c5b:	48 8d 05 e6 48 00 00 	lea    0x48e6(%rip),%rax        # 7548 <_IO_stdin_used+0x548>
    2c62:	48 89 45 c8          	mov    %rax,-0x38(%rbp)
    2c66:	48 8b 4d e8          	mov    -0x18(%rbp),%rcx
    2c6a:	48 8b 55 c8          	mov    -0x38(%rbp),%rdx
    2c6e:	8b 75 d0             	mov    -0x30(%rbp),%esi
    2c71:	8b 45 d4             	mov    -0x2c(%rbp),%eax
    2c74:	89 c7                	mov    %eax,%edi
    2c76:	b8 00 00 00 00       	mov    $0x0,%eax
    2c7b:	e8 e0 f5 ff ff       	callq  2260 <error@plt>
    2c80:	90                   	nop
    2c81:	8b 05 11 75 00 00    	mov    0x7511(%rip),%eax        # a198 <exit_failure>
    2c87:	89 c7                	mov    %eax,%edi
    2c89:	e8 e2 f3 ff ff       	callq  2070 <_exit@plt>
    2c8e:	48 8b 05 cb 75 00 00 	mov    0x75cb(%rip),%rax        # a260 <stderr@@GLIBC_2.2.5>
    2c95:	48 89 c7             	mov    %rax,%rdi
    2c98:	e8 0e 2f 00 00       	callq  5bab <close_stream>
    2c9d:	85 c0                	test   %eax,%eax
    2c9f:	74 0d                	je     2cae <close_stdout+0x10e>
    2ca1:	8b 05 f1 74 00 00    	mov    0x74f1(%rip),%eax        # a198 <exit_failure>
    2ca7:	89 c7                	mov    %eax,%edi
    2ca9:	e8 c2 f3 ff ff       	callq  2070 <_exit@plt>
    2cae:	90                   	nop
    2caf:	48 8b 5d f8          	mov    -0x8(%rbp),%rbx
    2cb3:	c9                   	leaveq 
    2cb4:	c3                   	retq   

0000000000002cb5 <base_name>:
    2cb5:	55                   	push   %rbp
    2cb6:	48 89 e5             	mov    %rsp,%rbp
    2cb9:	48 83 ec 30          	sub    $0x30,%rsp
    2cbd:	48 89 7d d8          	mov    %rdi,-0x28(%rbp)
    2cc1:	48 8b 45 d8          	mov    -0x28(%rbp),%rax
    2cc5:	48 89 c7             	mov    %rax,%rdi
    2cc8:	e8 b1 2d 00 00       	callq  5a7e <last_component>
    2ccd:	48 89 45 f8          	mov    %rax,-0x8(%rbp)
    2cd1:	48 8b 45 f8          	mov    -0x8(%rbp),%rax
    2cd5:	0f b6 00             	movzbl (%rax),%eax
    2cd8:	84 c0                	test   %al,%al
    2cda:	74 34                	je     2d10 <base_name+0x5b>
    2cdc:	48 8b 45 f8          	mov    -0x8(%rbp),%rax
    2ce0:	48 89 c7             	mov    %rax,%rdi
    2ce3:	e8 ff 2d 00 00       	callq  5ae7 <base_len>
    2ce8:	48 89 45 f0          	mov    %rax,-0x10(%rbp)
    2cec:	48 8b 55 f0          	mov    -0x10(%rbp),%rdx
    2cf0:	48 8b 45 f8          	mov    -0x8(%rbp),%rax
    2cf4:	48 01 d0             	add    %rdx,%rax
    2cf7:	0f b6 00             	movzbl (%rax),%eax
    2cfa:	3c 2f                	cmp    $0x2f,%al
    2cfc:	0f 94 c0             	sete   %al
    2cff:	0f b6 c0             	movzbl %al,%eax
    2d02:	48 01 45 f0          	add    %rax,-0x10(%rbp)
    2d06:	b8 00 00 00 00       	mov    $0x0,%eax
    2d0b:	89 45 ec             	mov    %eax,-0x14(%rbp)
    2d0e:	eb 1f                	jmp    2d2f <base_name+0x7a>
    2d10:	48 8b 45 d8          	mov    -0x28(%rbp),%rax
    2d14:	48 89 45 f8          	mov    %rax,-0x8(%rbp)
    2d18:	48 8b 45 f8          	mov    -0x8(%rbp),%rax
    2d1c:	48 89 c7             	mov    %rax,%rdi
    2d1f:	e8 c3 2d 00 00       	callq  5ae7 <base_len>
    2d24:	48 89 45 f0          	mov    %rax,-0x10(%rbp)
    2d28:	c7 45 ec 00 00 00 00 	movl   $0x0,-0x14(%rbp)
    2d2f:	8b 45 ec             	mov    -0x14(%rbp),%eax
    2d32:	48 63 d0             	movslq %eax,%rdx
    2d35:	48 8b 45 f0          	mov    -0x10(%rbp),%rax
    2d39:	48 01 d0             	add    %rdx,%rax
    2d3c:	48 83 c0 01          	add    $0x1,%rax
    2d40:	48 89 c7             	mov    %rax,%rdi
    2d43:	e8 68 27 00 00       	callq  54b0 <ximalloc>
    2d48:	48 89 45 e0          	mov    %rax,-0x20(%rbp)
    2d4c:	83 7d ec 00          	cmpl   $0x0,-0x14(%rbp)
    2d50:	74 12                	je     2d64 <base_name+0xaf>
    2d52:	48 8b 45 e0          	mov    -0x20(%rbp),%rax
    2d56:	c6 00 2e             	movb   $0x2e,(%rax)
    2d59:	48 8b 45 e0          	mov    -0x20(%rbp),%rax
    2d5d:	48 83 c0 01          	add    $0x1,%rax
    2d61:	c6 00 2f             	movb   $0x2f,(%rax)
    2d64:	48 8b 55 f0          	mov    -0x10(%rbp),%rdx
    2d68:	8b 45 ec             	mov    -0x14(%rbp),%eax
    2d6b:	48 63 c8             	movslq %eax,%rcx
    2d6e:	48 8b 45 e0          	mov    -0x20(%rbp),%rax
    2d72:	48 01 c1             	add    %rax,%rcx
    2d75:	48 8b 45 f8          	mov    -0x8(%rbp),%rax
    2d79:	48 89 c6             	mov    %rax,%rsi
    2d7c:	48 89 cf             	mov    %rcx,%rdi
    2d7f:	e8 4c f4 ff ff       	callq  21d0 <memcpy@plt>
    2d84:	8b 45 ec             	mov    -0x14(%rbp),%eax
    2d87:	48 63 d0             	movslq %eax,%rdx
    2d8a:	48 8b 45 f0          	mov    -0x10(%rbp),%rax
    2d8e:	48 01 d0             	add    %rdx,%rax
    2d91:	48 89 c2             	mov    %rax,%rdx
    2d94:	48 8b 45 e0          	mov    -0x20(%rbp),%rax
    2d98:	48 01 d0             	add    %rdx,%rax
    2d9b:	c6 00 00             	movb   $0x0,(%rax)
    2d9e:	48 8b 45 e0          	mov    -0x20(%rbp),%rax
    2da2:	c9                   	leaveq 
    2da3:	c3                   	retq   

0000000000002da4 <strip_trailing_slashes>:
    2da4:	55                   	push   %rbp
    2da5:	48 89 e5             	mov    %rsp,%rbp
    2da8:	48 83 ec 30          	sub    $0x30,%rsp
    2dac:	48 89 7d d8          	mov    %rdi,-0x28(%rbp)
    2db0:	48 8b 45 d8          	mov    -0x28(%rbp),%rax
    2db4:	48 89 c7             	mov    %rax,%rdi
    2db7:	e8 c2 2c 00 00       	callq  5a7e <last_component>
    2dbc:	48 89 45 f8          	mov    %rax,-0x8(%rbp)
    2dc0:	48 8b 45 f8          	mov    -0x8(%rbp),%rax
    2dc4:	0f b6 00             	movzbl (%rax),%eax
    2dc7:	84 c0                	test   %al,%al
    2dc9:	75 08                	jne    2dd3 <strip_trailing_slashes+0x2f>
    2dcb:	48 8b 45 d8          	mov    -0x28(%rbp),%rax
    2dcf:	48 89 45 f8          	mov    %rax,-0x8(%rbp)
    2dd3:	48 8b 45 f8          	mov    -0x8(%rbp),%rax
    2dd7:	48 89 c7             	mov    %rax,%rdi
    2dda:	e8 08 2d 00 00       	callq  5ae7 <base_len>
    2ddf:	48 8b 55 f8          	mov    -0x8(%rbp),%rdx
    2de3:	48 01 d0             	add    %rdx,%rax
    2de6:	48 89 45 f0          	mov    %rax,-0x10(%rbp)
    2dea:	48 8b 45 f0          	mov    -0x10(%rbp),%rax
    2dee:	0f b6 00             	movzbl (%rax),%eax
    2df1:	84 c0                	test   %al,%al
    2df3:	0f 95 c0             	setne  %al
    2df6:	88 45 ef             	mov    %al,-0x11(%rbp)
    2df9:	48 8b 45 f0          	mov    -0x10(%rbp),%rax
    2dfd:	c6 00 00             	movb   $0x0,(%rax)
    2e00:	0f b6 45 ef          	movzbl -0x11(%rbp),%eax
    2e04:	c9                   	leaveq 
    2e05:	c3                   	retq   

0000000000002e06 <rpl_free>:
    2e06:	55                   	push   %rbp
    2e07:	48 89 e5             	mov    %rsp,%rbp
    2e0a:	53                   	push   %rbx
    2e0b:	48 83 ec 28          	sub    $0x28,%rsp
    2e0f:	48 89 7d d8          	mov    %rdi,-0x28(%rbp)
    2e13:	e8 38 f2 ff ff       	callq  2050 <__errno_location@plt>
    2e18:	8b 00                	mov    (%rax),%eax
    2e1a:	89 45 e8             	mov    %eax,-0x18(%rbp)
    2e1d:	e8 2e f2 ff ff       	callq  2050 <__errno_location@plt>
    2e22:	8b 00                	mov    (%rax),%eax
    2e24:	89 45 ec             	mov    %eax,-0x14(%rbp)
    2e27:	e8 24 f2 ff ff       	callq  2050 <__errno_location@plt>
    2e2c:	c7 00 00 00 00 00    	movl   $0x0,(%rax)
    2e32:	48 8b 45 d8          	mov    -0x28(%rbp),%rax
    2e36:	48 89 c7             	mov    %rax,%rdi
    2e39:	e8 f2 f1 ff ff       	callq  2030 <free@plt>
    2e3e:	e8 0d f2 ff ff       	callq  2050 <__errno_location@plt>
    2e43:	8b 00                	mov    (%rax),%eax
    2e45:	85 c0                	test   %eax,%eax
    2e47:	0f 94 c0             	sete   %al
    2e4a:	0f b6 d8             	movzbl %al,%ebx
    2e4d:	e8 fe f1 ff ff       	callq  2050 <__errno_location@plt>
    2e52:	48 63 d3             	movslq %ebx,%rdx
    2e55:	8b 54 95 e8          	mov    -0x18(%rbp,%rdx,4),%edx
    2e59:	89 10                	mov    %edx,(%rax)
    2e5b:	90                   	nop
    2e5c:	48 8b 5d f8          	mov    -0x8(%rbp),%rbx
    2e60:	c9                   	leaveq 
    2e61:	c3                   	retq   

0000000000002e62 <set_program_name>:
    2e62:	55                   	push   %rbp
    2e63:	48 89 e5             	mov    %rsp,%rbp
    2e66:	48 83 ec 20          	sub    $0x20,%rsp
    2e6a:	48 89 7d e8          	mov    %rdi,-0x18(%rbp)
    2e6e:	48 83 7d e8 00       	cmpq   $0x0,-0x18(%rbp)
    2e73:	75 25                	jne    2e9a <set_program_name+0x38>
    2e75:	48 8b 05 e4 73 00 00 	mov    0x73e4(%rip),%rax        # a260 <stderr@@GLIBC_2.2.5>
    2e7c:	48 89 c1             	mov    %rax,%rcx
    2e7f:	ba 37 00 00 00       	mov    $0x37,%edx
    2e84:	be 01 00 00 00       	mov    $0x1,%esi
    2e89:	48 8d 3d c0 46 00 00 	lea    0x46c0(%rip),%rdi        # 7550 <_IO_stdin_used+0x550>
    2e90:	e8 0b f4 ff ff       	callq  22a0 <fwrite@plt>
    2e95:	e8 a6 f1 ff ff       	callq  2040 <abort@plt>
    2e9a:	48 8b 45 e8          	mov    -0x18(%rbp),%rax
    2e9e:	be 2f 00 00 00       	mov    $0x2f,%esi
    2ea3:	48 89 c7             	mov    %rax,%rdi
    2ea6:	e8 85 f2 ff ff       	callq  2130 <strrchr@plt>
    2eab:	48 89 45 f8          	mov    %rax,-0x8(%rbp)
    2eaf:	48 83 7d f8 00       	cmpq   $0x0,-0x8(%rbp)
    2eb4:	74 0a                	je     2ec0 <set_program_name+0x5e>
    2eb6:	48 8b 45 f8          	mov    -0x8(%rbp),%rax
    2eba:	48 83 c0 01          	add    $0x1,%rax
    2ebe:	eb 04                	jmp    2ec4 <set_program_name+0x62>
    2ec0:	48 8b 45 e8          	mov    -0x18(%rbp),%rax
    2ec4:	48 89 45 f0          	mov    %rax,-0x10(%rbp)
    2ec8:	48 8b 45 f0          	mov    -0x10(%rbp),%rax
    2ecc:	48 2b 45 e8          	sub    -0x18(%rbp),%rax
    2ed0:	48 83 f8 06          	cmp    $0x6,%rax
    2ed4:	7e 5b                	jle    2f31 <set_program_name+0xcf>
    2ed6:	48 8b 45 f0          	mov    -0x10(%rbp),%rax
    2eda:	48 83 e8 07          	sub    $0x7,%rax
    2ede:	ba 07 00 00 00       	mov    $0x7,%edx
    2ee3:	48 8d 35 9e 46 00 00 	lea    0x469e(%rip),%rsi        # 7588 <_IO_stdin_used+0x588>
    2eea:	48 89 c7             	mov    %rax,%rdi
    2eed:	e8 6e f1 ff ff       	callq  2060 <strncmp@plt>
    2ef2:	85 c0                	test   %eax,%eax
    2ef4:	75 3b                	jne    2f31 <set_program_name+0xcf>
    2ef6:	48 8b 45 f0          	mov    -0x10(%rbp),%rax
    2efa:	48 89 45 e8          	mov    %rax,-0x18(%rbp)
    2efe:	48 8b 45 f0          	mov    -0x10(%rbp),%rax
    2f02:	ba 03 00 00 00       	mov    $0x3,%edx
    2f07:	48 8d 35 82 46 00 00 	lea    0x4682(%rip),%rsi        # 7590 <_IO_stdin_used+0x590>
    2f0e:	48 89 c7             	mov    %rax,%rdi
    2f11:	e8 4a f1 ff ff       	callq  2060 <strncmp@plt>
    2f16:	85 c0                	test   %eax,%eax
    2f18:	75 17                	jne    2f31 <set_program_name+0xcf>
    2f1a:	48 8b 45 f0          	mov    -0x10(%rbp),%rax
    2f1e:	48 83 c0 03          	add    $0x3,%rax
    2f22:	48 89 45 e8          	mov    %rax,-0x18(%rbp)
    2f26:	48 8b 45 e8          	mov    -0x18(%rbp),%rax
    2f2a:	48 89 05 ef 72 00 00 	mov    %rax,0x72ef(%rip)        # a220 <__progname@@GLIBC_2.2.5>
    2f31:	48 8b 45 e8          	mov    -0x18(%rbp),%rax
    2f35:	48 89 05 44 73 00 00 	mov    %rax,0x7344(%rip)        # a280 <program_name>
    2f3c:	48 8b 45 e8          	mov    -0x18(%rbp),%rax
    2f40:	48 89 05 01 73 00 00 	mov    %rax,0x7301(%rip)        # a248 <__progname_full@@GLIBC_2.2.5>
    2f47:	90                   	nop
    2f48:	c9                   	leaveq 
    2f49:	c3                   	retq   

0000000000002f4a <clone_quoting_options>:
    2f4a:	55                   	push   %rbp
    2f4b:	48 89 e5             	mov    %rsp,%rbp
    2f4e:	48 83 ec 20          	sub    $0x20,%rsp
    2f52:	48 89 7d e8          	mov    %rdi,-0x18(%rbp)
    2f56:	e8 f5 f0 ff ff       	callq  2050 <__errno_location@plt>
    2f5b:	8b 00                	mov    (%rax),%eax
    2f5d:	89 45 fc             	mov    %eax,-0x4(%rbp)
    2f60:	48 83 7d e8 00       	cmpq   $0x0,-0x18(%rbp)
    2f65:	74 06                	je     2f6d <clone_quoting_options+0x23>
    2f67:	48 8b 45 e8          	mov    -0x18(%rbp),%rax
    2f6b:	eb 07                	jmp    2f74 <clone_quoting_options+0x2a>
    2f6d:	48 8d 05 2c 73 00 00 	lea    0x732c(%rip),%rax        # a2a0 <default_quoting_options>
    2f74:	be 38 00 00 00       	mov    $0x38,%esi
    2f79:	48 89 c7             	mov    %rax,%rdi
    2f7c:	e8 c7 29 00 00       	callq  5948 <xmemdup>
    2f81:	48 89 45 f0          	mov    %rax,-0x10(%rbp)
    2f85:	e8 c6 f0 ff ff       	callq  2050 <__errno_location@plt>
    2f8a:	8b 55 fc             	mov    -0x4(%rbp),%edx
    2f8d:	89 10                	mov    %edx,(%rax)
    2f8f:	48 8b 45 f0          	mov    -0x10(%rbp),%rax
    2f93:	c9                   	leaveq 
    2f94:	c3                   	retq   

0000000000002f95 <get_quoting_style>:
    2f95:	55                   	push   %rbp
    2f96:	48 89 e5             	mov    %rsp,%rbp
    2f99:	48 89 7d f8          	mov    %rdi,-0x8(%rbp)
    2f9d:	48 83 7d f8 00       	cmpq   $0x0,-0x8(%rbp)
    2fa2:	74 06                	je     2faa <get_quoting_style+0x15>
    2fa4:	48 8b 45 f8          	mov    -0x8(%rbp),%rax
    2fa8:	eb 07                	jmp    2fb1 <get_quoting_style+0x1c>
    2faa:	48 8d 05 ef 72 00 00 	lea    0x72ef(%rip),%rax        # a2a0 <default_quoting_options>
    2fb1:	8b 00                	mov    (%rax),%eax
    2fb3:	5d                   	pop    %rbp
    2fb4:	c3                   	retq   

0000000000002fb5 <set_quoting_style>:
    2fb5:	55                   	push   %rbp
    2fb6:	48 89 e5             	mov    %rsp,%rbp
    2fb9:	48 89 7d f8          	mov    %rdi,-0x8(%rbp)
    2fbd:	89 75 f4             	mov    %esi,-0xc(%rbp)
    2fc0:	48 83 7d f8 00       	cmpq   $0x0,-0x8(%rbp)
    2fc5:	74 06                	je     2fcd <set_quoting_style+0x18>
    2fc7:	48 8b 45 f8          	mov    -0x8(%rbp),%rax
    2fcb:	eb 07                	jmp    2fd4 <set_quoting_style+0x1f>
    2fcd:	48 8d 05 cc 72 00 00 	lea    0x72cc(%rip),%rax        # a2a0 <default_quoting_options>
    2fd4:	8b 55 f4             	mov    -0xc(%rbp),%edx
    2fd7:	89 10                	mov    %edx,(%rax)
    2fd9:	90                   	nop
    2fda:	5d                   	pop    %rbp
    2fdb:	c3                   	retq   

0000000000002fdc <set_char_quoting>:
    2fdc:	55                   	push   %rbp
    2fdd:	48 89 e5             	mov    %rsp,%rbp
    2fe0:	48 89 7d d8          	mov    %rdi,-0x28(%rbp)
    2fe4:	89 f0                	mov    %esi,%eax
    2fe6:	89 55 d0             	mov    %edx,-0x30(%rbp)
    2fe9:	88 45 d4             	mov    %al,-0x2c(%rbp)
    2fec:	0f b6 45 d4          	movzbl -0x2c(%rbp),%eax
    2ff0:	88 45 ff             	mov    %al,-0x1(%rbp)
    2ff3:	48 83 7d d8 00       	cmpq   $0x0,-0x28(%rbp)
    2ff8:	74 06                	je     3000 <set_char_quoting+0x24>
    2ffa:	48 8b 45 d8          	mov    -0x28(%rbp),%rax
    2ffe:	eb 07                	jmp    3007 <set_char_quoting+0x2b>
    3000:	48 8d 05 99 72 00 00 	lea    0x7299(%rip),%rax        # a2a0 <default_quoting_options>
    3007:	48 8d 50 08          	lea    0x8(%rax),%rdx
    300b:	0f b6 45 ff          	movzbl -0x1(%rbp),%eax
    300f:	c0 e8 05             	shr    $0x5,%al
    3012:	0f b6 c0             	movzbl %al,%eax
    3015:	48 c1 e0 02          	shl    $0x2,%rax
    3019:	48 01 d0             	add    %rdx,%rax
    301c:	48 89 45 f0          	mov    %rax,-0x10(%rbp)
    3020:	0f b6 45 ff          	movzbl -0x1(%rbp),%eax
    3024:	83 e0 1f             	and    $0x1f,%eax
    3027:	89 45 ec             	mov    %eax,-0x14(%rbp)
    302a:	48 8b 45 f0          	mov    -0x10(%rbp),%rax
    302e:	8b 10                	mov    (%rax),%edx
    3030:	8b 45 ec             	mov    -0x14(%rbp),%eax
    3033:	89 c1                	mov    %eax,%ecx
    3035:	d3 ea                	shr    %cl,%edx
    3037:	89 d0                	mov    %edx,%eax
    3039:	83 e0 01             	and    $0x1,%eax
    303c:	89 45 e8             	mov    %eax,-0x18(%rbp)
    303f:	48 8b 45 f0          	mov    -0x10(%rbp),%rax
    3043:	8b 30                	mov    (%rax),%esi
    3045:	8b 45 d0             	mov    -0x30(%rbp),%eax
    3048:	83 e0 01             	and    $0x1,%eax
    304b:	33 45 e8             	xor    -0x18(%rbp),%eax
    304e:	89 c2                	mov    %eax,%edx
    3050:	8b 45 ec             	mov    -0x14(%rbp),%eax
    3053:	89 c1                	mov    %eax,%ecx
    3055:	d3 e2                	shl    %cl,%edx
    3057:	89 d0                	mov    %edx,%eax
    3059:	31 c6                	xor    %eax,%esi
    305b:	89 f2                	mov    %esi,%edx
    305d:	48 8b 45 f0          	mov    -0x10(%rbp),%rax
    3061:	89 10                	mov    %edx,(%rax)
    3063:	8b 45 e8             	mov    -0x18(%rbp),%eax
    3066:	5d                   	pop    %rbp
    3067:	c3                   	retq   

0000000000003068 <set_quoting_flags>:
    3068:	55                   	push   %rbp
    3069:	48 89 e5             	mov    %rsp,%rbp
    306c:	48 89 7d e8          	mov    %rdi,-0x18(%rbp)
    3070:	89 75 e4             	mov    %esi,-0x1c(%rbp)
    3073:	48 83 7d e8 00       	cmpq   $0x0,-0x18(%rbp)
    3078:	75 0b                	jne    3085 <set_quoting_flags+0x1d>
    307a:	48 8d 05 1f 72 00 00 	lea    0x721f(%rip),%rax        # a2a0 <default_quoting_options>
    3081:	48 89 45 e8          	mov    %rax,-0x18(%rbp)
    3085:	48 8b 45 e8          	mov    -0x18(%rbp),%rax
    3089:	8b 40 04             	mov    0x4(%rax),%eax
    308c:	89 45 fc             	mov    %eax,-0x4(%rbp)
    308f:	48 8b 45 e8          	mov    -0x18(%rbp),%rax
    3093:	8b 55 e4             	mov    -0x1c(%rbp),%edx
    3096:	89 50 04             	mov    %edx,0x4(%rax)
    3099:	8b 45 fc             	mov    -0x4(%rbp),%eax
    309c:	5d                   	pop    %rbp
    309d:	c3                   	retq   

000000000000309e <set_custom_quoting>:
    309e:	55                   	push   %rbp
    309f:	48 89 e5             	mov    %rsp,%rbp
    30a2:	48 83 ec 20          	sub    $0x20,%rsp
    30a6:	48 89 7d f8          	mov    %rdi,-0x8(%rbp)
    30aa:	48 89 75 f0          	mov    %rsi,-0x10(%rbp)
    30ae:	48 89 55 e8          	mov    %rdx,-0x18(%rbp)
    30b2:	48 83 7d f8 00       	cmpq   $0x0,-0x8(%rbp)
    30b7:	75 0b                	jne    30c4 <set_custom_quoting+0x26>
    30b9:	48 8d 05 e0 71 00 00 	lea    0x71e0(%rip),%rax        # a2a0 <default_quoting_options>
    30c0:	48 89 45 f8          	mov    %rax,-0x8(%rbp)
    30c4:	48 8b 45 f8          	mov    -0x8(%rbp),%rax
    30c8:	c7 00 0a 00 00 00    	movl   $0xa,(%rax)
    30ce:	48 83 7d f0 00       	cmpq   $0x0,-0x10(%rbp)
    30d3:	74 07                	je     30dc <set_custom_quoting+0x3e>
    30d5:	48 83 7d e8 00       	cmpq   $0x0,-0x18(%rbp)
    30da:	75 05                	jne    30e1 <set_custom_quoting+0x43>
    30dc:	e8 5f ef ff ff       	callq  2040 <abort@plt>
    30e1:	48 8b 45 f8          	mov    -0x8(%rbp),%rax
    30e5:	48 8b 55 f0          	mov    -0x10(%rbp),%rdx
    30e9:	48 89 50 28          	mov    %rdx,0x28(%rax)
    30ed:	48 8b 45 f8          	mov    -0x8(%rbp),%rax
    30f1:	48 8b 55 e8          	mov    -0x18(%rbp),%rdx
    30f5:	48 89 50 30          	mov    %rdx,0x30(%rax)
    30f9:	90                   	nop
    30fa:	c9                   	leaveq 
    30fb:	c3                   	retq   

00000000000030fc <quoting_options_from_style>:
    30fc:	55                   	push   %rbp
    30fd:	48 89 e5             	mov    %rsp,%rbp
    3100:	53                   	push   %rbx
    3101:	48 83 ec 58          	sub    $0x58,%rsp
    3105:	48 89 7d a8          	mov    %rdi,-0x58(%rbp)
    3109:	89 75 a4             	mov    %esi,-0x5c(%rbp)
    310c:	48 c7 45 b0 00 00 00 	movq   $0x0,-0x50(%rbp)
    3113:	00 
    3114:	48 c7 45 b8 00 00 00 	movq   $0x0,-0x48(%rbp)
    311b:	00 
    311c:	48 c7 45 c0 00 00 00 	movq   $0x0,-0x40(%rbp)
    3123:	00 
    3124:	48 c7 45 c8 00 00 00 	movq   $0x0,-0x38(%rbp)
    312b:	00 
    312c:	48 c7 45 d0 00 00 00 	movq   $0x0,-0x30(%rbp)
    3133:	00 
    3134:	48 c7 45 d8 00 00 00 	movq   $0x0,-0x28(%rbp)
    313b:	00 
    313c:	48 c7 45 e0 00 00 00 	movq   $0x0,-0x20(%rbp)
    3143:	00 
    3144:	83 7d a4 0a          	cmpl   $0xa,-0x5c(%rbp)
    3148:	75 05                	jne    314f <quoting_options_from_style+0x53>
    314a:	e8 f1 ee ff ff       	callq  2040 <abort@plt>
    314f:	8b 45 a4             	mov    -0x5c(%rbp),%eax
    3152:	89 45 b0             	mov    %eax,-0x50(%rbp)
    3155:	48 8b 45 a8          	mov    -0x58(%rbp),%rax
    3159:	48 8b 4d b0          	mov    -0x50(%rbp),%rcx
    315d:	48 8b 5d b8          	mov    -0x48(%rbp),%rbx
    3161:	48 89 08             	mov    %rcx,(%rax)
    3164:	48 89 58 08          	mov    %rbx,0x8(%rax)
    3168:	48 8b 4d c0          	mov    -0x40(%rbp),%rcx
    316c:	48 8b 5d c8          	mov    -0x38(%rbp),%rbx
    3170:	48 89 48 10          	mov    %rcx,0x10(%rax)
    3174:	48 89 58 18          	mov    %rbx,0x18(%rax)
    3178:	48 8b 4d d0          	mov    -0x30(%rbp),%rcx
    317c:	48 8b 5d d8          	mov    -0x28(%rbp),%rbx
    3180:	48 89 48 20          	mov    %rcx,0x20(%rax)
    3184:	48 89 58 28          	mov    %rbx,0x28(%rax)
    3188:	48 8b 55 e0          	mov    -0x20(%rbp),%rdx
    318c:	48 89 50 30          	mov    %rdx,0x30(%rax)
    3190:	48 8b 45 a8          	mov    -0x58(%rbp),%rax
    3194:	48 8b 5d f8          	mov    -0x8(%rbp),%rbx
    3198:	c9                   	leaveq 
    3199:	c3                   	retq   

000000000000319a <gettext_quote>:
    319a:	55                   	push   %rbp
    319b:	48 89 e5             	mov    %rsp,%rbp
    319e:	48 83 ec 20          	sub    $0x20,%rsp
    31a2:	48 89 7d e8          	mov    %rdi,-0x18(%rbp)
    31a6:	89 75 e4             	mov    %esi,-0x1c(%rbp)
    31a9:	48 8b 45 e8          	mov    -0x18(%rbp),%rax
    31ad:	48 89 c7             	mov    %rax,%rdi
    31b0:	e8 5b ef ff ff       	callq  2110 <gettext@plt>
    31b5:	48 89 45 f8          	mov    %rax,-0x8(%rbp)
    31b9:	48 8b 45 f8          	mov    -0x8(%rbp),%rax
    31bd:	48 3b 45 e8          	cmp    -0x18(%rbp),%rax
    31c1:	74 09                	je     31cc <gettext_quote+0x32>
    31c3:	48 8b 45 f8          	mov    -0x8(%rbp),%rax
    31c7:	e9 87 00 00 00       	jmpq   3253 <gettext_quote+0xb9>
    31cc:	e8 26 2d 00 00       	callq  5ef7 <locale_charset>
    31d1:	48 89 45 f0          	mov    %rax,-0x10(%rbp)
    31d5:	48 8b 45 f0          	mov    -0x10(%rbp),%rax
    31d9:	48 8d 35 48 44 00 00 	lea    0x4448(%rip),%rsi        # 7628 <quoting_style_vals+0x28>
    31e0:	48 89 c7             	mov    %rax,%rdi
    31e3:	e8 4d 29 00 00       	callq  5b35 <c_strcasecmp>
    31e8:	85 c0                	test   %eax,%eax
    31ea:	75 1d                	jne    3209 <gettext_quote+0x6f>
    31ec:	48 8b 45 e8          	mov    -0x18(%rbp),%rax
    31f0:	0f b6 00             	movzbl (%rax),%eax
    31f3:	3c 60                	cmp    $0x60,%al
    31f5:	75 09                	jne    3200 <gettext_quote+0x66>
    31f7:	48 8d 05 30 44 00 00 	lea    0x4430(%rip),%rax        # 762e <quoting_style_vals+0x2e>
    31fe:	eb 53                	jmp    3253 <gettext_quote+0xb9>
    3200:	48 8d 05 2b 44 00 00 	lea    0x442b(%rip),%rax        # 7632 <quoting_style_vals+0x32>
    3207:	eb 4a                	jmp    3253 <gettext_quote+0xb9>
    3209:	48 8b 45 f0          	mov    -0x10(%rbp),%rax
    320d:	48 8d 35 22 44 00 00 	lea    0x4422(%rip),%rsi        # 7636 <quoting_style_vals+0x36>
    3214:	48 89 c7             	mov    %rax,%rdi
    3217:	e8 19 29 00 00       	callq  5b35 <c_strcasecmp>
    321c:	85 c0                	test   %eax,%eax
    321e:	75 1d                	jne    323d <gettext_quote+0xa3>
    3220:	48 8b 45 e8          	mov    -0x18(%rbp),%rax
    3224:	0f b6 00             	movzbl (%rax),%eax
    3227:	3c 60                	cmp    $0x60,%al
    3229:	75 09                	jne    3234 <gettext_quote+0x9a>
    322b:	48 8d 05 0c 44 00 00 	lea    0x440c(%rip),%rax        # 763e <quoting_style_vals+0x3e>
    3232:	eb 1f                	jmp    3253 <gettext_quote+0xb9>
    3234:	48 8d 05 07 44 00 00 	lea    0x4407(%rip),%rax        # 7642 <quoting_style_vals+0x42>
    323b:	eb 16                	jmp    3253 <gettext_quote+0xb9>
    323d:	83 7d e4 09          	cmpl   $0x9,-0x1c(%rbp)
    3241:	75 09                	jne    324c <gettext_quote+0xb2>
    3243:	48 8d 05 fb 43 00 00 	lea    0x43fb(%rip),%rax        # 7645 <quoting_style_vals+0x45>
    324a:	eb 07                	jmp    3253 <gettext_quote+0xb9>
    324c:	48 8d 05 f4 43 00 00 	lea    0x43f4(%rip),%rax        # 7647 <quoting_style_vals+0x47>
    3253:	c9                   	leaveq 
    3254:	c3                   	retq   

0000000000003255 <quotearg_buffer_restyled>:
    3255:	55                   	push   %rbp
    3256:	48 89 e5             	mov    %rsp,%rbp
    3259:	53                   	push   %rbx
    325a:	48 81 ec b8 00 00 00 	sub    $0xb8,%rsp
    3261:	48 89 bd 68 ff ff ff 	mov    %rdi,-0x98(%rbp)
    3268:	48 89 b5 60 ff ff ff 	mov    %rsi,-0xa0(%rbp)
    326f:	48 89 95 58 ff ff ff 	mov    %rdx,-0xa8(%rbp)
    3276:	48 89 8d 50 ff ff ff 	mov    %rcx,-0xb0(%rbp)
    327d:	44 89 85 4c ff ff ff 	mov    %r8d,-0xb4(%rbp)
    3284:	44 89 8d 48 ff ff ff 	mov    %r9d,-0xb8(%rbp)
    328b:	48 c7 45 e0 00 00 00 	movq   $0x0,-0x20(%rbp)
    3292:	00 
    3293:	48 c7 45 d8 00 00 00 	movq   $0x0,-0x28(%rbp)
    329a:	00 
    329b:	48 c7 45 d0 00 00 00 	movq   $0x0,-0x30(%rbp)
    32a2:	00 
    32a3:	48 c7 45 c8 00 00 00 	movq   $0x0,-0x38(%rbp)
    32aa:	00 
    32ab:	c6 45 c7 00          	movb   $0x0,-0x39(%rbp)
    32af:	e8 1c ee ff ff       	callq  20d0 <__ctype_get_mb_cur_max@plt>
    32b4:	48 83 f8 01          	cmp    $0x1,%rax
    32b8:	0f 94 c0             	sete   %al
    32bb:	88 45 9f             	mov    %al,-0x61(%rbp)
    32be:	8b 85 48 ff ff ff    	mov    -0xb8(%rbp),%eax
    32c4:	83 e0 02             	and    $0x2,%eax
    32c7:	85 c0                	test   %eax,%eax
    32c9:	0f 95 c0             	setne  %al
    32cc:	88 45 c6             	mov    %al,-0x3a(%rbp)
    32cf:	c6 45 c5 00          	movb   $0x0,-0x3b(%rbp)
    32d3:	c6 45 c4 00          	movb   $0x0,-0x3c(%rbp)
    32d7:	c6 45 c3 01          	movb   $0x1,-0x3d(%rbp)
    32db:	83 bd 4c ff ff ff 0a 	cmpl   $0xa,-0xb4(%rbp)
    32e2:	0f 87 9a 01 00 00    	ja     3482 <quotearg_buffer_restyled+0x22d>
    32e8:	8b 85 4c ff ff ff    	mov    -0xb4(%rbp),%eax
    32ee:	48 8d 14 85 00 00 00 	lea    0x0(,%rax,4),%rdx
    32f5:	00 
    32f6:	48 8d 05 4f 43 00 00 	lea    0x434f(%rip),%rax        # 764c <quoting_style_vals+0x4c>
    32fd:	8b 04 02             	mov    (%rdx,%rax,1),%eax
    3300:	48 98                	cltq   
    3302:	48 8d 15 43 43 00 00 	lea    0x4343(%rip),%rdx        # 764c <quoting_style_vals+0x4c>
    3309:	48 01 d0             	add    %rdx,%rax
    330c:	ff e0                	jmpq   *%rax
    330e:	c7 85 4c ff ff ff 05 	movl   $0x5,-0xb4(%rbp)
    3315:	00 00 00 
    3318:	c6 45 c6 01          	movb   $0x1,-0x3a(%rbp)
    331c:	0f b6 45 c6          	movzbl -0x3a(%rbp),%eax
    3320:	83 f0 01             	xor    $0x1,%eax
    3323:	84 c0                	test   %al,%al
    3325:	74 23                	je     334a <quotearg_buffer_restyled+0xf5>
    3327:	48 8b 45 e0          	mov    -0x20(%rbp),%rax
    332b:	48 3b 85 60 ff ff ff 	cmp    -0xa0(%rbp),%rax
    3332:	73 11                	jae    3345 <quotearg_buffer_restyled+0xf0>
    3334:	48 8b 95 68 ff ff ff 	mov    -0x98(%rbp),%rdx
    333b:	48 8b 45 e0          	mov    -0x20(%rbp),%rax
    333f:	48 01 d0             	add    %rdx,%rax
    3342:	c6 00 22             	movb   $0x22,(%rax)
    3345:	48 83 45 e0 01       	addq   $0x1,-0x20(%rbp)
    334a:	c6 45 c7 01          	movb   $0x1,-0x39(%rbp)
    334e:	48 8d 05 f0 42 00 00 	lea    0x42f0(%rip),%rax        # 7645 <quoting_style_vals+0x45>
    3355:	48 89 45 d0          	mov    %rax,-0x30(%rbp)
    3359:	48 c7 45 c8 01 00 00 	movq   $0x1,-0x38(%rbp)
    3360:	00 
    3361:	e9 21 01 00 00       	jmpq   3487 <quotearg_buffer_restyled+0x232>
    3366:	c6 45 c7 01          	movb   $0x1,-0x39(%rbp)
    336a:	c6 45 c6 00          	movb   $0x0,-0x3a(%rbp)
    336e:	e9 14 01 00 00       	jmpq   3487 <quotearg_buffer_restyled+0x232>
    3373:	83 bd 4c ff ff ff 0a 	cmpl   $0xa,-0xb4(%rbp)
    337a:	74 30                	je     33ac <quotearg_buffer_restyled+0x157>
    337c:	8b 85 4c ff ff ff    	mov    -0xb4(%rbp),%eax
    3382:	89 c6                	mov    %eax,%esi
    3384:	48 8d 3d be 42 00 00 	lea    0x42be(%rip),%rdi        # 7649 <quoting_style_vals+0x49>
    338b:	e8 0a fe ff ff       	callq  319a <gettext_quote>
    3390:	48 89 45 18          	mov    %rax,0x18(%rbp)
    3394:	8b 85 4c ff ff ff    	mov    -0xb4(%rbp),%eax
    339a:	89 c6                	mov    %eax,%esi
    339c:	48 8d 3d a4 42 00 00 	lea    0x42a4(%rip),%rdi        # 7647 <quoting_style_vals+0x47>
    33a3:	e8 f2 fd ff ff       	callq  319a <gettext_quote>
    33a8:	48 89 45 20          	mov    %rax,0x20(%rbp)
    33ac:	0f b6 45 c6          	movzbl -0x3a(%rbp),%eax
    33b0:	83 f0 01             	xor    $0x1,%eax
    33b3:	84 c0                	test   %al,%al
    33b5:	74 43                	je     33fa <quotearg_buffer_restyled+0x1a5>
    33b7:	48 8b 45 18          	mov    0x18(%rbp),%rax
    33bb:	48 89 45 d0          	mov    %rax,-0x30(%rbp)
    33bf:	eb 2e                	jmp    33ef <quotearg_buffer_restyled+0x19a>
    33c1:	48 8b 45 e0          	mov    -0x20(%rbp),%rax
    33c5:	48 3b 85 60 ff ff ff 	cmp    -0xa0(%rbp),%rax
    33cc:	73 17                	jae    33e5 <quotearg_buffer_restyled+0x190>
    33ce:	48 8b 95 68 ff ff ff 	mov    -0x98(%rbp),%rdx
    33d5:	48 8b 45 e0          	mov    -0x20(%rbp),%rax
    33d9:	48 01 c2             	add    %rax,%rdx
    33dc:	48 8b 45 d0          	mov    -0x30(%rbp),%rax
    33e0:	0f b6 00             	movzbl (%rax),%eax
    33e3:	88 02                	mov    %al,(%rdx)
    33e5:	48 83 45 e0 01       	addq   $0x1,-0x20(%rbp)
    33ea:	48 83 45 d0 01       	addq   $0x1,-0x30(%rbp)
    33ef:	48 8b 45 d0          	mov    -0x30(%rbp),%rax
    33f3:	0f b6 00             	movzbl (%rax),%eax
    33f6:	84 c0                	test   %al,%al
    33f8:	75 c7                	jne    33c1 <quotearg_buffer_restyled+0x16c>
    33fa:	c6 45 c7 01          	movb   $0x1,-0x39(%rbp)
    33fe:	48 8b 45 20          	mov    0x20(%rbp),%rax
    3402:	48 89 45 d0          	mov    %rax,-0x30(%rbp)
    3406:	48 8b 45 d0          	mov    -0x30(%rbp),%rax
    340a:	48 89 c7             	mov    %rax,%rdi
    340d:	e8 ce ec ff ff       	callq  20e0 <strlen@plt>
    3412:	48 89 45 c8          	mov    %rax,-0x38(%rbp)
    3416:	eb 6f                	jmp    3487 <quotearg_buffer_restyled+0x232>
    3418:	c6 45 c7 01          	movb   $0x1,-0x39(%rbp)
    341c:	c6 45 c6 01          	movb   $0x1,-0x3a(%rbp)
    3420:	0f b6 45 c6          	movzbl -0x3a(%rbp),%eax
    3424:	83 f0 01             	xor    $0x1,%eax
    3427:	84 c0                	test   %al,%al
    3429:	74 04                	je     342f <quotearg_buffer_restyled+0x1da>
    342b:	c6 45 c7 01          	movb   $0x1,-0x39(%rbp)
    342f:	c7 85 4c ff ff ff 02 	movl   $0x2,-0xb4(%rbp)
    3436:	00 00 00 
    3439:	0f b6 45 c6          	movzbl -0x3a(%rbp),%eax
    343d:	83 f0 01             	xor    $0x1,%eax
    3440:	84 c0                	test   %al,%al
    3442:	74 23                	je     3467 <quotearg_buffer_restyled+0x212>
    3444:	48 8b 45 e0          	mov    -0x20(%rbp),%rax
    3448:	48 3b 85 60 ff ff ff 	cmp    -0xa0(%rbp),%rax
    344f:	73 11                	jae    3462 <quotearg_buffer_restyled+0x20d>
    3451:	48 8b 95 68 ff ff ff 	mov    -0x98(%rbp),%rdx
    3458:	48 8b 45 e0          	mov    -0x20(%rbp),%rax
    345c:	48 01 d0             	add    %rdx,%rax
    345f:	c6 00 27             	movb   $0x27,(%rax)
    3462:	48 83 45 e0 01       	addq   $0x1,-0x20(%rbp)
    3467:	48 8d 05 d9 41 00 00 	lea    0x41d9(%rip),%rax        # 7647 <quoting_style_vals+0x47>
    346e:	48 89 45 d0          	mov    %rax,-0x30(%rbp)
    3472:	48 c7 45 c8 01 00 00 	movq   $0x1,-0x38(%rbp)
    3479:	00 
    347a:	eb 0b                	jmp    3487 <quotearg_buffer_restyled+0x232>
    347c:	c6 45 c6 00          	movb   $0x0,-0x3a(%rbp)
    3480:	eb 05                	jmp    3487 <quotearg_buffer_restyled+0x232>
    3482:	e8 b9 eb ff ff       	callq  2040 <abort@plt>
    3487:	48 c7 45 e8 00 00 00 	movq   $0x0,-0x18(%rbp)
    348e:	00 
    348f:	e9 6d 0b 00 00       	jmpq   4001 <quotearg_buffer_restyled+0xdac>
    3494:	c6 45 c0 00          	movb   $0x0,-0x40(%rbp)
    3498:	c6 45 bf 00          	movb   $0x0,-0x41(%rbp)
    349c:	c6 45 be 00          	movb   $0x0,-0x42(%rbp)
    34a0:	80 7d c7 00          	cmpb   $0x0,-0x39(%rbp)
    34a4:	0f 84 90 00 00 00    	je     353a <quotearg_buffer_restyled+0x2e5>
    34aa:	83 bd 4c ff ff ff 02 	cmpl   $0x2,-0xb4(%rbp)
    34b1:	0f 84 83 00 00 00    	je     353a <quotearg_buffer_restyled+0x2e5>
    34b7:	48 83 7d c8 00       	cmpq   $0x0,-0x38(%rbp)
    34bc:	74 7c                	je     353a <quotearg_buffer_restyled+0x2e5>
    34be:	48 8b 55 e8          	mov    -0x18(%rbp),%rdx
    34c2:	48 8b 45 c8          	mov    -0x38(%rbp),%rax
    34c6:	48 8d 1c 02          	lea    (%rdx,%rax,1),%rbx
    34ca:	48 83 bd 50 ff ff ff 	cmpq   $0xffffffffffffffff,-0xb0(%rbp)
    34d1:	ff 
    34d2:	75 26                	jne    34fa <quotearg_buffer_restyled+0x2a5>
    34d4:	48 83 7d c8 01       	cmpq   $0x1,-0x38(%rbp)
    34d9:	76 1f                	jbe    34fa <quotearg_buffer_restyled+0x2a5>
    34db:	48 8b 85 58 ff ff ff 	mov    -0xa8(%rbp),%rax
    34e2:	48 89 c7             	mov    %rax,%rdi
    34e5:	e8 f6 eb ff ff       	callq  20e0 <strlen@plt>
    34ea:	48 89 85 50 ff ff ff 	mov    %rax,-0xb0(%rbp)
    34f1:	48 8b 85 50 ff ff ff 	mov    -0xb0(%rbp),%rax
    34f8:	eb 07                	jmp    3501 <quotearg_buffer_restyled+0x2ac>
    34fa:	48 8b 85 50 ff ff ff 	mov    -0xb0(%rbp),%rax
    3501:	48 39 d8             	cmp    %rbx,%rax
    3504:	72 34                	jb     353a <quotearg_buffer_restyled+0x2e5>
    3506:	48 8b 95 58 ff ff ff 	mov    -0xa8(%rbp),%rdx
    350d:	48 8b 45 e8          	mov    -0x18(%rbp),%rax
    3511:	48 8d 0c 02          	lea    (%rdx,%rax,1),%rcx
    3515:	48 8b 55 c8          	mov    -0x38(%rbp),%rdx
    3519:	48 8b 45 d0          	mov    -0x30(%rbp),%rax
    351d:	48 89 c6             	mov    %rax,%rsi
    3520:	48 89 cf             	mov    %rcx,%rdi
    3523:	e8 38 ec ff ff       	callq  2160 <memcmp@plt>
    3528:	85 c0                	test   %eax,%eax
    352a:	75 0e                	jne    353a <quotearg_buffer_restyled+0x2e5>
    352c:	80 7d c6 00          	cmpb   $0x0,-0x3a(%rbp)
    3530:	0f 85 21 0c 00 00    	jne    4157 <quotearg_buffer_restyled+0xf02>
    3536:	c6 45 c0 01          	movb   $0x1,-0x40(%rbp)
    353a:	48 8b 95 58 ff ff ff 	mov    -0xa8(%rbp),%rdx
    3541:	48 8b 45 e8          	mov    -0x18(%rbp),%rax
    3545:	48 01 d0             	add    %rdx,%rax
    3548:	0f b6 00             	movzbl (%rax),%eax
    354b:	88 45 c2             	mov    %al,-0x3e(%rbp)
    354e:	0f b6 45 c2          	movzbl -0x3e(%rbp),%eax
    3552:	83 f8 7e             	cmp    $0x7e,%eax
    3555:	0f 87 af 04 00 00    	ja     3a0a <quotearg_buffer_restyled+0x7b5>
    355b:	89 c0                	mov    %eax,%eax
    355d:	48 8d 14 85 00 00 00 	lea    0x0(,%rax,4),%rdx
    3564:	00 
    3565:	48 8d 05 0c 41 00 00 	lea    0x410c(%rip),%rax        # 7678 <quoting_style_vals+0x78>
    356c:	8b 04 02             	mov    (%rdx,%rax,1),%eax
    356f:	48 98                	cltq   
    3571:	48 8d 15 00 41 00 00 	lea    0x4100(%rip),%rdx        # 7678 <quoting_style_vals+0x78>
    3578:	48 01 d0             	add    %rdx,%rax
    357b:	ff e0                	jmpq   *%rax
    357d:	80 7d c7 00          	cmpb   $0x0,-0x39(%rbp)
    3581:	0f 84 51 01 00 00    	je     36d8 <quotearg_buffer_restyled+0x483>
    3587:	80 7d c6 00          	cmpb   $0x0,-0x3a(%rbp)
    358b:	0f 85 c9 0b 00 00    	jne    415a <quotearg_buffer_restyled+0xf05>
    3591:	c6 45 bf 01          	movb   $0x1,-0x41(%rbp)
    3595:	83 bd 4c ff ff ff 02 	cmpl   $0x2,-0xb4(%rbp)
    359c:	75 78                	jne    3616 <quotearg_buffer_restyled+0x3c1>
    359e:	0f b6 45 c5          	movzbl -0x3b(%rbp),%eax
    35a2:	83 f0 01             	xor    $0x1,%eax
    35a5:	84 c0                	test   %al,%al
    35a7:	74 6d                	je     3616 <quotearg_buffer_restyled+0x3c1>
    35a9:	48 8b 45 e0          	mov    -0x20(%rbp),%rax
    35ad:	48 3b 85 60 ff ff ff 	cmp    -0xa0(%rbp),%rax
    35b4:	73 11                	jae    35c7 <quotearg_buffer_restyled+0x372>
    35b6:	48 8b 95 68 ff ff ff 	mov    -0x98(%rbp),%rdx
    35bd:	48 8b 45 e0          	mov    -0x20(%rbp),%rax
    35c1:	48 01 d0             	add    %rdx,%rax
    35c4:	c6 00 27             	movb   $0x27,(%rax)
    35c7:	48 83 45 e0 01       	addq   $0x1,-0x20(%rbp)
    35cc:	48 8b 45 e0          	mov    -0x20(%rbp),%rax
    35d0:	48 3b 85 60 ff ff ff 	cmp    -0xa0(%rbp),%rax
    35d7:	73 11                	jae    35ea <quotearg_buffer_restyled+0x395>
    35d9:	48 8b 95 68 ff ff ff 	mov    -0x98(%rbp),%rdx
    35e0:	48 8b 45 e0          	mov    -0x20(%rbp),%rax
    35e4:	48 01 d0             	add    %rdx,%rax
    35e7:	c6 00 24             	movb   $0x24,(%rax)
    35ea:	48 83 45 e0 01       	addq   $0x1,-0x20(%rbp)
    35ef:	48 8b 45 e0          	mov    -0x20(%rbp),%rax
    35f3:	48 3b 85 60 ff ff ff 	cmp    -0xa0(%rbp),%rax
    35fa:	73 11                	jae    360d <quotearg_buffer_restyled+0x3b8>
    35fc:	48 8b 95 68 ff ff ff 	mov    -0x98(%rbp),%rdx
    3603:	48 8b 45 e0          	mov    -0x20(%rbp),%rax
    3607:	48 01 d0             	add    %rdx,%rax
    360a:	c6 00 27             	movb   $0x27,(%rax)
    360d:	48 83 45 e0 01       	addq   $0x1,-0x20(%rbp)
    3612:	c6 45 c5 01          	movb   $0x1,-0x3b(%rbp)
    3616:	48 8b 45 e0          	mov    -0x20(%rbp),%rax
    361a:	48 3b 85 60 ff ff ff 	cmp    -0xa0(%rbp),%rax
    3621:	73 11                	jae    3634 <quotearg_buffer_restyled+0x3df>
    3623:	48 8b 95 68 ff ff ff 	mov    -0x98(%rbp),%rdx
    362a:	48 8b 45 e0          	mov    -0x20(%rbp),%rax
    362e:	48 01 d0             	add    %rdx,%rax
    3631:	c6 00 5c             	movb   $0x5c,(%rax)
    3634:	48 83 45 e0 01       	addq   $0x1,-0x20(%rbp)
    3639:	83 bd 4c ff ff ff 02 	cmpl   $0x2,-0xb4(%rbp)
    3640:	0f 84 89 00 00 00    	je     36cf <quotearg_buffer_restyled+0x47a>
    3646:	48 8b 45 e8          	mov    -0x18(%rbp),%rax
    364a:	48 83 c0 01          	add    $0x1,%rax
    364e:	48 39 85 50 ff ff ff 	cmp    %rax,-0xb0(%rbp)
    3655:	76 78                	jbe    36cf <quotearg_buffer_restyled+0x47a>
    3657:	48 8b 45 e8          	mov    -0x18(%rbp),%rax
    365b:	48 8d 50 01          	lea    0x1(%rax),%rdx
    365f:	48 8b 85 58 ff ff ff 	mov    -0xa8(%rbp),%rax
    3666:	48 01 d0             	add    %rdx,%rax
    3669:	0f b6 00             	movzbl (%rax),%eax
    366c:	3c 2f                	cmp    $0x2f,%al
    366e:	7e 5f                	jle    36cf <quotearg_buffer_restyled+0x47a>
    3670:	48 8b 45 e8          	mov    -0x18(%rbp),%rax
    3674:	48 8d 50 01          	lea    0x1(%rax),%rdx
    3678:	48 8b 85 58 ff ff ff 	mov    -0xa8(%rbp),%rax
    367f:	48 01 d0             	add    %rdx,%rax
    3682:	0f b6 00             	movzbl (%rax),%eax
    3685:	3c 39                	cmp    $0x39,%al
    3687:	7f 46                	jg     36cf <quotearg_buffer_restyled+0x47a>
    3689:	48 8b 45 e0          	mov    -0x20(%rbp),%rax
    368d:	48 3b 85 60 ff ff ff 	cmp    -0xa0(%rbp),%rax
    3694:	73 11                	jae    36a7 <quotearg_buffer_restyled+0x452>
    3696:	48 8b 95 68 ff ff ff 	mov    -0x98(%rbp),%rdx
    369d:	48 8b 45 e0          	mov    -0x20(%rbp),%rax
    36a1:	48 01 d0             	add    %rdx,%rax
    36a4:	c6 00 30             	movb   $0x30,(%rax)
    36a7:	48 83 45 e0 01       	addq   $0x1,-0x20(%rbp)
    36ac:	48 8b 45 e0          	mov    -0x20(%rbp),%rax
    36b0:	48 3b 85 60 ff ff ff 	cmp    -0xa0(%rbp),%rax
    36b7:	73 11                	jae    36ca <quotearg_buffer_restyled+0x475>
    36b9:	48 8b 95 68 ff ff ff 	mov    -0x98(%rbp),%rdx
    36c0:	48 8b 45 e0          	mov    -0x20(%rbp),%rax
    36c4:	48 01 d0             	add    %rdx,%rax
    36c7:	c6 00 30             	movb   $0x30,(%rax)
    36ca:	48 83 45 e0 01       	addq   $0x1,-0x20(%rbp)
    36cf:	c6 45 c2 30          	movb   $0x30,-0x3e(%rbp)
    36d3:	e9 64 07 00 00       	jmpq   3e3c <quotearg_buffer_restyled+0xbe7>
    36d8:	8b 85 48 ff ff ff    	mov    -0xb8(%rbp),%eax
    36de:	83 e0 01             	and    $0x1,%eax
    36e1:	85 c0                	test   %eax,%eax
    36e3:	0f 84 53 07 00 00    	je     3e3c <quotearg_buffer_restyled+0xbe7>
    36e9:	e9 0e 09 00 00       	jmpq   3ffc <quotearg_buffer_restyled+0xda7>
    36ee:	83 bd 4c ff ff ff 02 	cmpl   $0x2,-0xb4(%rbp)
    36f5:	74 0e                	je     3705 <quotearg_buffer_restyled+0x4b0>
    36f7:	83 bd 4c ff ff ff 05 	cmpl   $0x5,-0xb4(%rbp)
    36fe:	74 14                	je     3714 <quotearg_buffer_restyled+0x4bf>
    3700:	e9 57 01 00 00       	jmpq   385c <quotearg_buffer_restyled+0x607>
    3705:	80 7d c6 00          	cmpb   $0x0,-0x3a(%rbp)
    3709:	0f 84 46 01 00 00    	je     3855 <quotearg_buffer_restyled+0x600>
    370f:	e9 59 0a 00 00       	jmpq   416d <quotearg_buffer_restyled+0xf18>
    3714:	8b 85 48 ff ff ff    	mov    -0xb8(%rbp),%eax
    371a:	83 e0 04             	and    $0x4,%eax
    371d:	85 c0                	test   %eax,%eax
    371f:	0f 84 36 01 00 00    	je     385b <quotearg_buffer_restyled+0x606>
    3725:	48 8b 45 e8          	mov    -0x18(%rbp),%rax
    3729:	48 83 c0 02          	add    $0x2,%rax
    372d:	48 39 85 50 ff ff ff 	cmp    %rax,-0xb0(%rbp)
    3734:	0f 86 21 01 00 00    	jbe    385b <quotearg_buffer_restyled+0x606>
    373a:	48 8b 45 e8          	mov    -0x18(%rbp),%rax
    373e:	48 8d 50 01          	lea    0x1(%rax),%rdx
    3742:	48 8b 85 58 ff ff ff 	mov    -0xa8(%rbp),%rax
    3749:	48 01 d0             	add    %rdx,%rax
    374c:	0f b6 00             	movzbl (%rax),%eax
    374f:	3c 3f                	cmp    $0x3f,%al
    3751:	0f 85 04 01 00 00    	jne    385b <quotearg_buffer_restyled+0x606>
    3757:	48 8b 45 e8          	mov    -0x18(%rbp),%rax
    375b:	48 8d 50 02          	lea    0x2(%rax),%rdx
    375f:	48 8b 85 58 ff ff ff 	mov    -0xa8(%rbp),%rax
    3766:	48 01 d0             	add    %rdx,%rax
    3769:	0f b6 00             	movzbl (%rax),%eax
    376c:	0f be c0             	movsbl %al,%eax
    376f:	83 e8 21             	sub    $0x21,%eax
    3772:	83 f8 1d             	cmp    $0x1d,%eax
    3775:	0f 87 d7 00 00 00    	ja     3852 <quotearg_buffer_restyled+0x5fd>
    377b:	89 c0                	mov    %eax,%eax
    377d:	48 8d 14 85 00 00 00 	lea    0x0(,%rax,4),%rdx
    3784:	00 
    3785:	48 8d 05 e8 40 00 00 	lea    0x40e8(%rip),%rax        # 7874 <quoting_style_vals+0x274>
    378c:	8b 04 02             	mov    (%rdx,%rax,1),%eax
    378f:	48 98                	cltq   
    3791:	48 8d 15 dc 40 00 00 	lea    0x40dc(%rip),%rdx        # 7874 <quoting_style_vals+0x274>
    3798:	48 01 d0             	add    %rdx,%rax
    379b:	ff e0                	jmpq   *%rax
    379d:	80 7d c6 00          	cmpb   $0x0,-0x3a(%rbp)
    37a1:	0f 85 b6 09 00 00    	jne    415d <quotearg_buffer_restyled+0xf08>
    37a7:	48 8b 45 e8          	mov    -0x18(%rbp),%rax
    37ab:	48 8d 50 02          	lea    0x2(%rax),%rdx
    37af:	48 8b 85 58 ff ff ff 	mov    -0xa8(%rbp),%rax
    37b6:	48 01 d0             	add    %rdx,%rax
    37b9:	0f b6 00             	movzbl (%rax),%eax
    37bc:	88 45 c2             	mov    %al,-0x3e(%rbp)
    37bf:	48 83 45 e8 02       	addq   $0x2,-0x18(%rbp)
    37c4:	48 8b 45 e0          	mov    -0x20(%rbp),%rax
    37c8:	48 3b 85 60 ff ff ff 	cmp    -0xa0(%rbp),%rax
    37cf:	73 11                	jae    37e2 <quotearg_buffer_restyled+0x58d>
    37d1:	48 8b 95 68 ff ff ff 	mov    -0x98(%rbp),%rdx
    37d8:	48 8b 45 e0          	mov    -0x20(%rbp),%rax
    37dc:	48 01 d0             	add    %rdx,%rax
    37df:	c6 00 3f             	movb   $0x3f,(%rax)
    37e2:	48 83 45 e0 01       	addq   $0x1,-0x20(%rbp)
    37e7:	48 8b 45 e0          	mov    -0x20(%rbp),%rax
    37eb:	48 3b 85 60 ff ff ff 	cmp    -0xa0(%rbp),%rax
    37f2:	73 11                	jae    3805 <quotearg_buffer_restyled+0x5b0>
    37f4:	48 8b 95 68 ff ff ff 	mov    -0x98(%rbp),%rdx
    37fb:	48 8b 45 e0          	mov    -0x20(%rbp),%rax
    37ff:	48 01 d0             	add    %rdx,%rax
    3802:	c6 00 22             	movb   $0x22,(%rax)
    3805:	48 83 45 e0 01       	addq   $0x1,-0x20(%rbp)
    380a:	48 8b 45 e0          	mov    -0x20(%rbp),%rax
    380e:	48 3b 85 60 ff ff ff 	cmp    -0xa0(%rbp),%rax
    3815:	73 11                	jae    3828 <quotearg_buffer_restyled+0x5d3>
    3817:	48 8b 95 68 ff ff ff 	mov    -0x98(%rbp),%rdx
    381e:	48 8b 45 e0          	mov    -0x20(%rbp),%rax
    3822:	48 01 d0             	add    %rdx,%rax
    3825:	c6 00 22             	movb   $0x22,(%rax)
    3828:	48 83 45 e0 01       	addq   $0x1,-0x20(%rbp)
    382d:	48 8b 45 e0          	mov    -0x20(%rbp),%rax
    3831:	48 3b 85 60 ff ff ff 	cmp    -0xa0(%rbp),%rax
    3838:	73 11                	jae    384b <quotearg_buffer_restyled+0x5f6>
    383a:	48 8b 95 68 ff ff ff 	mov    -0x98(%rbp),%rdx
    3841:	48 8b 45 e0          	mov    -0x20(%rbp),%rax
    3845:	48 01 d0             	add    %rdx,%rax
    3848:	c6 00 3f             	movb   $0x3f,(%rax)
    384b:	48 83 45 e0 01       	addq   $0x1,-0x20(%rbp)
    3850:	eb 01                	jmp    3853 <quotearg_buffer_restyled+0x5fe>
    3852:	90                   	nop
    3853:	eb 06                	jmp    385b <quotearg_buffer_restyled+0x606>
    3855:	90                   	nop
    3856:	e9 f1 05 00 00       	jmpq   3e4c <quotearg_buffer_restyled+0xbf7>
    385b:	90                   	nop
    385c:	e9 eb 05 00 00       	jmpq   3e4c <quotearg_buffer_restyled+0xbf7>
    3861:	c6 45 c1 61          	movb   $0x61,-0x3f(%rbp)
    3865:	eb 6f                	jmp    38d6 <quotearg_buffer_restyled+0x681>
    3867:	c6 45 c1 62          	movb   $0x62,-0x3f(%rbp)
    386b:	eb 69                	jmp    38d6 <quotearg_buffer_restyled+0x681>
    386d:	c6 45 c1 66          	movb   $0x66,-0x3f(%rbp)
    3871:	eb 63                	jmp    38d6 <quotearg_buffer_restyled+0x681>
    3873:	c6 45 c1 6e          	movb   $0x6e,-0x3f(%rbp)
    3877:	eb 49                	jmp    38c2 <quotearg_buffer_restyled+0x66d>
    3879:	c6 45 c1 72          	movb   $0x72,-0x3f(%rbp)
    387d:	eb 43                	jmp    38c2 <quotearg_buffer_restyled+0x66d>
    387f:	c6 45 c1 74          	movb   $0x74,-0x3f(%rbp)
    3883:	eb 3d                	jmp    38c2 <quotearg_buffer_restyled+0x66d>
    3885:	c6 45 c1 76          	movb   $0x76,-0x3f(%rbp)
    3889:	eb 4b                	jmp    38d6 <quotearg_buffer_restyled+0x681>
    388b:	0f b6 45 c2          	movzbl -0x3e(%rbp),%eax
    388f:	88 45 c1             	mov    %al,-0x3f(%rbp)
    3892:	83 bd 4c ff ff ff 02 	cmpl   $0x2,-0xb4(%rbp)
    3899:	75 0f                	jne    38aa <quotearg_buffer_restyled+0x655>
    389b:	80 7d c6 00          	cmpb   $0x0,-0x3a(%rbp)
    389f:	0f 84 c0 06 00 00    	je     3f65 <quotearg_buffer_restyled+0xd10>
    38a5:	e9 c3 08 00 00       	jmpq   416d <quotearg_buffer_restyled+0xf18>
    38aa:	80 7d c7 00          	cmpb   $0x0,-0x39(%rbp)
    38ae:	74 11                	je     38c1 <quotearg_buffer_restyled+0x66c>
    38b0:	80 7d c6 00          	cmpb   $0x0,-0x3a(%rbp)
    38b4:	74 0b                	je     38c1 <quotearg_buffer_restyled+0x66c>
    38b6:	48 83 7d c8 00       	cmpq   $0x0,-0x38(%rbp)
    38bb:	0f 85 a7 06 00 00    	jne    3f68 <quotearg_buffer_restyled+0xd13>
    38c1:	90                   	nop
    38c2:	83 bd 4c ff ff ff 02 	cmpl   $0x2,-0xb4(%rbp)
    38c9:	75 0a                	jne    38d5 <quotearg_buffer_restyled+0x680>
    38cb:	80 7d c6 00          	cmpb   $0x0,-0x3a(%rbp)
    38cf:	0f 85 8b 08 00 00    	jne    4160 <quotearg_buffer_restyled+0xf0b>
    38d5:	90                   	nop
    38d6:	80 7d c7 00          	cmpb   $0x0,-0x39(%rbp)
    38da:	0f 84 5f 05 00 00    	je     3e3f <quotearg_buffer_restyled+0xbea>
    38e0:	0f b6 45 c1          	movzbl -0x3f(%rbp),%eax
    38e4:	88 45 c2             	mov    %al,-0x3e(%rbp)
    38e7:	e9 c5 05 00 00       	jmpq   3eb1 <quotearg_buffer_restyled+0xc5c>
    38ec:	48 83 bd 50 ff ff ff 	cmpq   $0xffffffffffffffff,-0xb0(%rbp)
    38f3:	ff 
    38f4:	75 15                	jne    390b <quotearg_buffer_restyled+0x6b6>
    38f6:	48 8b 85 58 ff ff ff 	mov    -0xa8(%rbp),%rax
    38fd:	48 83 c0 01          	add    $0x1,%rax
    3901:	0f b6 00             	movzbl (%rax),%eax
    3904:	84 c0                	test   %al,%al
    3906:	0f 95 c0             	setne  %al
    3909:	eb 0b                	jmp    3916 <quotearg_buffer_restyled+0x6c1>
    390b:	48 83 bd 50 ff ff ff 	cmpq   $0x1,-0xb0(%rbp)
    3912:	01 
    3913:	0f 95 c0             	setne  %al
    3916:	84 c0                	test   %al,%al
    3918:	0f 85 24 05 00 00    	jne    3e42 <quotearg_buffer_restyled+0xbed>
    391e:	48 83 7d e8 00       	cmpq   $0x0,-0x18(%rbp)
    3923:	0f 85 1c 05 00 00    	jne    3e45 <quotearg_buffer_restyled+0xbf0>
    3929:	c6 45 be 01          	movb   $0x1,-0x42(%rbp)
    392d:	83 bd 4c ff ff ff 02 	cmpl   $0x2,-0xb4(%rbp)
    3934:	0f 85 0e 05 00 00    	jne    3e48 <quotearg_buffer_restyled+0xbf3>
    393a:	80 7d c6 00          	cmpb   $0x0,-0x3a(%rbp)
    393e:	0f 84 04 05 00 00    	je     3e48 <quotearg_buffer_restyled+0xbf3>
    3944:	e9 24 08 00 00       	jmpq   416d <quotearg_buffer_restyled+0xf18>
    3949:	c6 45 c4 01          	movb   $0x1,-0x3c(%rbp)
    394d:	c6 45 be 01          	movb   $0x1,-0x42(%rbp)
    3951:	83 bd 4c ff ff ff 02 	cmpl   $0x2,-0xb4(%rbp)
    3958:	0f 85 ed 04 00 00    	jne    3e4b <quotearg_buffer_restyled+0xbf6>
    395e:	80 7d c6 00          	cmpb   $0x0,-0x3a(%rbp)
    3962:	0f 85 fb 07 00 00    	jne    4163 <quotearg_buffer_restyled+0xf0e>
    3968:	48 83 bd 60 ff ff ff 	cmpq   $0x0,-0xa0(%rbp)
    396f:	00 
    3970:	74 1d                	je     398f <quotearg_buffer_restyled+0x73a>
    3972:	48 83 7d d8 00       	cmpq   $0x0,-0x28(%rbp)
    3977:	75 16                	jne    398f <quotearg_buffer_restyled+0x73a>
    3979:	48 8b 85 60 ff ff ff 	mov    -0xa0(%rbp),%rax
    3980:	48 89 45 d8          	mov    %rax,-0x28(%rbp)
    3984:	48 c7 85 60 ff ff ff 	movq   $0x0,-0xa0(%rbp)
    398b:	00 00 00 00 
    398f:	48 8b 45 e0          	mov    -0x20(%rbp),%rax
    3993:	48 3b 85 60 ff ff ff 	cmp    -0xa0(%rbp),%rax
    399a:	73 11                	jae    39ad <quotearg_buffer_restyled+0x758>
    399c:	48 8b 95 68 ff ff ff 	mov    -0x98(%rbp),%rdx
    39a3:	48 8b 45 e0          	mov    -0x20(%rbp),%rax
    39a7:	48 01 d0             	add    %rdx,%rax
    39aa:	c6 00 27             	movb   $0x27,(%rax)
    39ad:	48 83 45 e0 01       	addq   $0x1,-0x20(%rbp)
    39b2:	48 8b 45 e0          	mov    -0x20(%rbp),%rax
    39b6:	48 3b 85 60 ff ff ff 	cmp    -0xa0(%rbp),%rax
    39bd:	73 11                	jae    39d0 <quotearg_buffer_restyled+0x77b>
    39bf:	48 8b 95 68 ff ff ff 	mov    -0x98(%rbp),%rdx
    39c6:	48 8b 45 e0          	mov    -0x20(%rbp),%rax
    39ca:	48 01 d0             	add    %rdx,%rax
    39cd:	c6 00 5c             	movb   $0x5c,(%rax)
    39d0:	48 83 45 e0 01       	addq   $0x1,-0x20(%rbp)
    39d5:	48 8b 45 e0          	mov    -0x20(%rbp),%rax
    39d9:	48 3b 85 60 ff ff ff 	cmp    -0xa0(%rbp),%rax
    39e0:	73 11                	jae    39f3 <quotearg_buffer_restyled+0x79e>
    39e2:	48 8b 95 68 ff ff ff 	mov    -0x98(%rbp),%rdx
    39e9:	48 8b 45 e0          	mov    -0x20(%rbp),%rax
    39ed:	48 01 d0             	add    %rdx,%rax
    39f0:	c6 00 27             	movb   $0x27,(%rax)
    39f3:	48 83 45 e0 01       	addq   $0x1,-0x20(%rbp)
    39f8:	c6 45 c5 00          	movb   $0x0,-0x3b(%rbp)
    39fc:	e9 4a 04 00 00       	jmpq   3e4b <quotearg_buffer_restyled+0xbf6>
    3a01:	c6 45 be 01          	movb   $0x1,-0x42(%rbp)
    3a05:	e9 42 04 00 00       	jmpq   3e4c <quotearg_buffer_restyled+0xbf7>
    3a0a:	80 7d 9f 00          	cmpb   $0x0,-0x61(%rbp)
    3a0e:	74 32                	je     3a42 <quotearg_buffer_restyled+0x7ed>
    3a10:	48 c7 45 b0 01 00 00 	movq   $0x1,-0x50(%rbp)
    3a17:	00 
    3a18:	e8 b3 e8 ff ff       	callq  22d0 <__ctype_b_loc@plt>
    3a1d:	48 8b 10             	mov    (%rax),%rdx
    3a20:	0f b6 45 c2          	movzbl -0x3e(%rbp),%eax
    3a24:	48 01 c0             	add    %rax,%rax
    3a27:	48 01 d0             	add    %rdx,%rax
    3a2a:	0f b7 00             	movzwl (%rax),%eax
    3a2d:	0f b7 c0             	movzwl %ax,%eax
    3a30:	25 00 40 00 00       	and    $0x4000,%eax
    3a35:	85 c0                	test   %eax,%eax
    3a37:	0f 95 c0             	setne  %al
    3a3a:	88 45 af             	mov    %al,-0x51(%rbp)
    3a3d:	e9 a7 01 00 00       	jmpq   3be9 <quotearg_buffer_restyled+0x994>
    3a42:	48 8d 45 80          	lea    -0x80(%rbp),%rax
    3a46:	ba 08 00 00 00       	mov    $0x8,%edx
    3a4b:	be 00 00 00 00       	mov    $0x0,%esi
    3a50:	48 89 c7             	mov    %rax,%rdi
    3a53:	e8 f8 e6 ff ff       	callq  2150 <memset@plt>
    3a58:	48 c7 45 b0 00 00 00 	movq   $0x0,-0x50(%rbp)
    3a5f:	00 
    3a60:	c6 45 af 01          	movb   $0x1,-0x51(%rbp)
    3a64:	48 83 bd 50 ff ff ff 	cmpq   $0xffffffffffffffff,-0xb0(%rbp)
    3a6b:	ff 
    3a6c:	75 16                	jne    3a84 <quotearg_buffer_restyled+0x82f>
    3a6e:	48 8b 85 58 ff ff ff 	mov    -0xa8(%rbp),%rax
    3a75:	48 89 c7             	mov    %rax,%rdi
    3a78:	e8 63 e6 ff ff       	callq  20e0 <strlen@plt>
    3a7d:	48 89 85 50 ff ff ff 	mov    %rax,-0xb0(%rbp)
    3a84:	48 8b 55 e8          	mov    -0x18(%rbp),%rdx
    3a88:	48 8b 45 b0          	mov    -0x50(%rbp),%rax
    3a8c:	48 01 c2             	add    %rax,%rdx
    3a8f:	48 8b 85 50 ff ff ff 	mov    -0xb0(%rbp),%rax
    3a96:	48 29 d0             	sub    %rdx,%rax
    3a99:	48 89 c7             	mov    %rax,%rdi
    3a9c:	48 8b 55 e8          	mov    -0x18(%rbp),%rdx
    3aa0:	48 8b 45 b0          	mov    -0x50(%rbp),%rax
    3aa4:	48 01 c2             	add    %rax,%rdx
    3aa7:	48 8b 85 58 ff ff ff 	mov    -0xa8(%rbp),%rax
    3aae:	48 8d 34 02          	lea    (%rdx,%rax,1),%rsi
    3ab2:	48 8d 55 80          	lea    -0x80(%rbp),%rdx
    3ab6:	48 8d 85 7c ff ff ff 	lea    -0x84(%rbp),%rax
    3abd:	48 89 d1             	mov    %rdx,%rcx
    3ac0:	48 89 fa             	mov    %rdi,%rdx
    3ac3:	48 89 c7             	mov    %rax,%rdi
    3ac6:	e8 70 24 00 00       	callq  5f3b <rpl_mbrtowc>
    3acb:	48 89 45 90          	mov    %rax,-0x70(%rbp)
    3acf:	48 83 7d 90 00       	cmpq   $0x0,-0x70(%rbp)
    3ad4:	0f 84 0b 01 00 00    	je     3be5 <quotearg_buffer_restyled+0x990>
    3ada:	48 83 7d 90 ff       	cmpq   $0xffffffffffffffff,-0x70(%rbp)
    3adf:	75 09                	jne    3aea <quotearg_buffer_restyled+0x895>
    3ae1:	c6 45 af 00          	movb   $0x0,-0x51(%rbp)
    3ae5:	e9 ff 00 00 00       	jmpq   3be9 <quotearg_buffer_restyled+0x994>
    3aea:	48 83 7d 90 fe       	cmpq   $0xfffffffffffffffe,-0x70(%rbp)
    3aef:	75 44                	jne    3b35 <quotearg_buffer_restyled+0x8e0>
    3af1:	c6 45 af 00          	movb   $0x0,-0x51(%rbp)
    3af5:	eb 05                	jmp    3afc <quotearg_buffer_restyled+0x8a7>
    3af7:	48 83 45 b0 01       	addq   $0x1,-0x50(%rbp)
    3afc:	48 8b 55 e8          	mov    -0x18(%rbp),%rdx
    3b00:	48 8b 45 b0          	mov    -0x50(%rbp),%rax
    3b04:	48 01 d0             	add    %rdx,%rax
    3b07:	48 39 85 50 ff ff ff 	cmp    %rax,-0xb0(%rbp)
    3b0e:	0f 86 d4 00 00 00    	jbe    3be8 <quotearg_buffer_restyled+0x993>
    3b14:	48 8b 55 e8          	mov    -0x18(%rbp),%rdx
    3b18:	48 8b 45 b0          	mov    -0x50(%rbp),%rax
    3b1c:	48 01 c2             	add    %rax,%rdx
    3b1f:	48 8b 85 58 ff ff ff 	mov    -0xa8(%rbp),%rax
    3b26:	48 01 d0             	add    %rdx,%rax
    3b29:	0f b6 00             	movzbl (%rax),%eax
    3b2c:	84 c0                	test   %al,%al
    3b2e:	75 c7                	jne    3af7 <quotearg_buffer_restyled+0x8a2>
    3b30:	e9 b3 00 00 00       	jmpq   3be8 <quotearg_buffer_restyled+0x993>
    3b35:	80 7d c6 00          	cmpb   $0x0,-0x3a(%rbp)
    3b39:	74 77                	je     3bb2 <quotearg_buffer_restyled+0x95d>
    3b3b:	83 bd 4c ff ff ff 02 	cmpl   $0x2,-0xb4(%rbp)
    3b42:	75 6e                	jne    3bb2 <quotearg_buffer_restyled+0x95d>
    3b44:	48 c7 45 a0 01 00 00 	movq   $0x1,-0x60(%rbp)
    3b4b:	00 
    3b4c:	eb 5a                	jmp    3ba8 <quotearg_buffer_restyled+0x953>
    3b4e:	48 8b 55 e8          	mov    -0x18(%rbp),%rdx
    3b52:	48 8b 45 b0          	mov    -0x50(%rbp),%rax
    3b56:	48 01 c2             	add    %rax,%rdx
    3b59:	48 8b 45 a0          	mov    -0x60(%rbp),%rax
    3b5d:	48 01 c2             	add    %rax,%rdx
    3b60:	48 8b 85 58 ff ff ff 	mov    -0xa8(%rbp),%rax
    3b67:	48 01 d0             	add    %rdx,%rax
    3b6a:	0f b6 00             	movzbl (%rax),%eax
    3b6d:	0f be c0             	movsbl %al,%eax
    3b70:	83 e8 5b             	sub    $0x5b,%eax
    3b73:	83 f8 21             	cmp    $0x21,%eax
    3b76:	0f 97 c2             	seta   %dl
    3b79:	84 d2                	test   %dl,%dl
    3b7b:	75 25                	jne    3ba2 <quotearg_buffer_restyled+0x94d>
    3b7d:	ba 01 00 00 00       	mov    $0x1,%edx
    3b82:	89 c1                	mov    %eax,%ecx
    3b84:	48 d3 e2             	shl    %cl,%rdx
    3b87:	48 b8 2b 00 00 00 02 	movabs $0x20000002b,%rax
    3b8e:	00 00 00 
    3b91:	48 21 d0             	and    %rdx,%rax
    3b94:	48 85 c0             	test   %rax,%rax
    3b97:	0f 95 c0             	setne  %al
    3b9a:	84 c0                	test   %al,%al
    3b9c:	0f 85 cb 05 00 00    	jne    416d <quotearg_buffer_restyled+0xf18>
    3ba2:	90                   	nop
    3ba3:	48 83 45 a0 01       	addq   $0x1,-0x60(%rbp)
    3ba8:	48 8b 45 a0          	mov    -0x60(%rbp),%rax
    3bac:	48 3b 45 90          	cmp    -0x70(%rbp),%rax
    3bb0:	72 9c                	jb     3b4e <quotearg_buffer_restyled+0x8f9>
    3bb2:	8b 85 7c ff ff ff    	mov    -0x84(%rbp),%eax
    3bb8:	89 c7                	mov    %eax,%edi
    3bba:	e8 01 e7 ff ff       	callq  22c0 <iswprint@plt>
    3bbf:	85 c0                	test   %eax,%eax
    3bc1:	75 04                	jne    3bc7 <quotearg_buffer_restyled+0x972>
    3bc3:	c6 45 af 00          	movb   $0x0,-0x51(%rbp)
    3bc7:	48 8b 45 90          	mov    -0x70(%rbp),%rax
    3bcb:	48 01 45 b0          	add    %rax,-0x50(%rbp)
    3bcf:	48 8d 45 80          	lea    -0x80(%rbp),%rax
    3bd3:	48 89 c7             	mov    %rax,%rdi
    3bd6:	e8 d5 e6 ff ff       	callq  22b0 <mbsinit@plt>
    3bdb:	85 c0                	test   %eax,%eax
    3bdd:	0f 84 a1 fe ff ff    	je     3a84 <quotearg_buffer_restyled+0x82f>
    3be3:	eb 04                	jmp    3be9 <quotearg_buffer_restyled+0x994>
    3be5:	90                   	nop
    3be6:	eb 01                	jmp    3be9 <quotearg_buffer_restyled+0x994>
    3be8:	90                   	nop
    3be9:	0f b6 45 af          	movzbl -0x51(%rbp),%eax
    3bed:	88 45 be             	mov    %al,-0x42(%rbp)
    3bf0:	48 83 7d b0 01       	cmpq   $0x1,-0x50(%rbp)
    3bf5:	77 19                	ja     3c10 <quotearg_buffer_restyled+0x9bb>
    3bf7:	80 7d c7 00          	cmpb   $0x0,-0x39(%rbp)
    3bfb:	0f 84 4b 02 00 00    	je     3e4c <quotearg_buffer_restyled+0xbf7>
    3c01:	0f b6 45 af          	movzbl -0x51(%rbp),%eax
    3c05:	83 f0 01             	xor    $0x1,%eax
    3c08:	84 c0                	test   %al,%al
    3c0a:	0f 84 3c 02 00 00    	je     3e4c <quotearg_buffer_restyled+0xbf7>
    3c10:	48 8b 55 e8          	mov    -0x18(%rbp),%rdx
    3c14:	48 8b 45 b0          	mov    -0x50(%rbp),%rax
    3c18:	48 01 d0             	add    %rdx,%rax
    3c1b:	48 89 45 88          	mov    %rax,-0x78(%rbp)
    3c1f:	80 7d c7 00          	cmpb   $0x0,-0x39(%rbp)
    3c23:	0f 84 2f 01 00 00    	je     3d58 <quotearg_buffer_restyled+0xb03>
    3c29:	0f b6 45 af          	movzbl -0x51(%rbp),%eax
    3c2d:	83 f0 01             	xor    $0x1,%eax
    3c30:	84 c0                	test   %al,%al
    3c32:	0f 84 20 01 00 00    	je     3d58 <quotearg_buffer_restyled+0xb03>
    3c38:	80 7d c6 00          	cmpb   $0x0,-0x3a(%rbp)
    3c3c:	0f 85 24 05 00 00    	jne    4166 <quotearg_buffer_restyled+0xf11>
    3c42:	c6 45 bf 01          	movb   $0x1,-0x41(%rbp)
    3c46:	83 bd 4c ff ff ff 02 	cmpl   $0x2,-0xb4(%rbp)
    3c4d:	75 78                	jne    3cc7 <quotearg_buffer_restyled+0xa72>
    3c4f:	0f b6 45 c5          	movzbl -0x3b(%rbp),%eax
    3c53:	83 f0 01             	xor    $0x1,%eax
    3c56:	84 c0                	test   %al,%al
    3c58:	74 6d                	je     3cc7 <quotearg_buffer_restyled+0xa72>
    3c5a:	48 8b 45 e0          	mov    -0x20(%rbp),%rax
    3c5e:	48 3b 85 60 ff ff ff 	cmp    -0xa0(%rbp),%rax
    3c65:	73 11                	jae    3c78 <quotearg_buffer_restyled+0xa23>
    3c67:	48 8b 95 68 ff ff ff 	mov    -0x98(%rbp),%rdx
    3c6e:	48 8b 45 e0          	mov    -0x20(%rbp),%rax
    3c72:	48 01 d0             	add    %rdx,%rax
    3c75:	c6 00 27             	movb   $0x27,(%rax)
    3c78:	48 83 45 e0 01       	addq   $0x1,-0x20(%rbp)
    3c7d:	48 8b 45 e0          	mov    -0x20(%rbp),%rax
    3c81:	48 3b 85 60 ff ff ff 	cmp    -0xa0(%rbp),%rax
    3c88:	73 11                	jae    3c9b <quotearg_buffer_restyled+0xa46>
    3c8a:	48 8b 95 68 ff ff ff 	mov    -0x98(%rbp),%rdx
    3c91:	48 8b 45 e0          	mov    -0x20(%rbp),%rax
    3c95:	48 01 d0             	add    %rdx,%rax
    3c98:	c6 00 24             	movb   $0x24,(%rax)
    3c9b:	48 83 45 e0 01       	addq   $0x1,-0x20(%rbp)
    3ca0:	48 8b 45 e0          	mov    -0x20(%rbp),%rax
    3ca4:	48 3b 85 60 ff ff ff 	cmp    -0xa0(%rbp),%rax
    3cab:	73 11                	jae    3cbe <quotearg_buffer_restyled+0xa69>
    3cad:	48 8b 95 68 ff ff ff 	mov    -0x98(%rbp),%rdx
    3cb4:	48 8b 45 e0          	mov    -0x20(%rbp),%rax
    3cb8:	48 01 d0             	add    %rdx,%rax
    3cbb:	c6 00 27             	movb   $0x27,(%rax)
    3cbe:	48 83 45 e0 01       	addq   $0x1,-0x20(%rbp)
    3cc3:	c6 45 c5 01          	movb   $0x1,-0x3b(%rbp)
    3cc7:	48 8b 45 e0          	mov    -0x20(%rbp),%rax
    3ccb:	48 3b 85 60 ff ff ff 	cmp    -0xa0(%rbp),%rax
    3cd2:	73 11                	jae    3ce5 <quotearg_buffer_restyled+0xa90>
    3cd4:	48 8b 95 68 ff ff ff 	mov    -0x98(%rbp),%rdx
    3cdb:	48 8b 45 e0          	mov    -0x20(%rbp),%rax
    3cdf:	48 01 d0             	add    %rdx,%rax
    3ce2:	c6 00 5c             	movb   $0x5c,(%rax)
    3ce5:	48 83 45 e0 01       	addq   $0x1,-0x20(%rbp)
    3cea:	48 8b 45 e0          	mov    -0x20(%rbp),%rax
    3cee:	48 3b 85 60 ff ff ff 	cmp    -0xa0(%rbp),%rax
    3cf5:	73 1c                	jae    3d13 <quotearg_buffer_restyled+0xabe>
    3cf7:	0f b6 45 c2          	movzbl -0x3e(%rbp),%eax
    3cfb:	c0 e8 06             	shr    $0x6,%al
    3cfe:	8d 48 30             	lea    0x30(%rax),%ecx
    3d01:	48 8b 95 68 ff ff ff 	mov    -0x98(%rbp),%rdx
    3d08:	48 8b 45 e0          	mov    -0x20(%rbp),%rax
    3d0c:	48 01 d0             	add    %rdx,%rax
    3d0f:	89 ca                	mov    %ecx,%edx
    3d11:	88 10                	mov    %dl,(%rax)
    3d13:	48 83 45 e0 01       	addq   $0x1,-0x20(%rbp)
    3d18:	48 8b 45 e0          	mov    -0x20(%rbp),%rax
    3d1c:	48 3b 85 60 ff ff ff 	cmp    -0xa0(%rbp),%rax
    3d23:	73 1f                	jae    3d44 <quotearg_buffer_restyled+0xaef>
    3d25:	0f b6 45 c2          	movzbl -0x3e(%rbp),%eax
    3d29:	c0 e8 03             	shr    $0x3,%al
    3d2c:	83 e0 07             	and    $0x7,%eax
    3d2f:	8d 48 30             	lea    0x30(%rax),%ecx
    3d32:	48 8b 95 68 ff ff ff 	mov    -0x98(%rbp),%rdx
    3d39:	48 8b 45 e0          	mov    -0x20(%rbp),%rax
    3d3d:	48 01 d0             	add    %rdx,%rax
    3d40:	89 ca                	mov    %ecx,%edx
    3d42:	88 10                	mov    %dl,(%rax)
    3d44:	48 83 45 e0 01       	addq   $0x1,-0x20(%rbp)
    3d49:	0f b6 45 c2          	movzbl -0x3e(%rbp),%eax
    3d4d:	83 e0 07             	and    $0x7,%eax
    3d50:	83 c0 30             	add    $0x30,%eax
    3d53:	88 45 c2             	mov    %al,-0x3e(%rbp)
    3d56:	eb 2d                	jmp    3d85 <quotearg_buffer_restyled+0xb30>
    3d58:	80 7d c0 00          	cmpb   $0x0,-0x40(%rbp)
    3d5c:	74 27                	je     3d85 <quotearg_buffer_restyled+0xb30>
    3d5e:	48 8b 45 e0          	mov    -0x20(%rbp),%rax
    3d62:	48 3b 85 60 ff ff ff 	cmp    -0xa0(%rbp),%rax
    3d69:	73 11                	jae    3d7c <quotearg_buffer_restyled+0xb27>
    3d6b:	48 8b 95 68 ff ff ff 	mov    -0x98(%rbp),%rdx
    3d72:	48 8b 45 e0          	mov    -0x20(%rbp),%rax
    3d76:	48 01 d0             	add    %rdx,%rax
    3d79:	c6 00 5c             	movb   $0x5c,(%rax)
    3d7c:	48 83 45 e0 01       	addq   $0x1,-0x20(%rbp)
    3d81:	c6 45 c0 00          	movb   $0x0,-0x40(%rbp)
    3d85:	48 8b 45 e8          	mov    -0x18(%rbp),%rax
    3d89:	48 83 c0 01          	add    $0x1,%rax
    3d8d:	48 39 45 88          	cmp    %rax,-0x78(%rbp)
    3d91:	0f 86 9f 00 00 00    	jbe    3e36 <quotearg_buffer_restyled+0xbe1>
    3d97:	80 7d c5 00          	cmpb   $0x0,-0x3b(%rbp)
    3d9b:	74 55                	je     3df2 <quotearg_buffer_restyled+0xb9d>
    3d9d:	0f b6 45 bf          	movzbl -0x41(%rbp),%eax
    3da1:	83 f0 01             	xor    $0x1,%eax
    3da4:	84 c0                	test   %al,%al
    3da6:	74 4a                	je     3df2 <quotearg_buffer_restyled+0xb9d>
    3da8:	48 8b 45 e0          	mov    -0x20(%rbp),%rax
    3dac:	48 3b 85 60 ff ff ff 	cmp    -0xa0(%rbp),%rax
    3db3:	73 11                	jae    3dc6 <quotearg_buffer_restyled+0xb71>
    3db5:	48 8b 95 68 ff ff ff 	mov    -0x98(%rbp),%rdx
    3dbc:	48 8b 45 e0          	mov    -0x20(%rbp),%rax
    3dc0:	48 01 d0             	add    %rdx,%rax
    3dc3:	c6 00 27             	movb   $0x27,(%rax)
    3dc6:	48 83 45 e0 01       	addq   $0x1,-0x20(%rbp)
    3dcb:	48 8b 45 e0          	mov    -0x20(%rbp),%rax
    3dcf:	48 3b 85 60 ff ff ff 	cmp    -0xa0(%rbp),%rax
    3dd6:	73 11                	jae    3de9 <quotearg_buffer_restyled+0xb94>
    3dd8:	48 8b 95 68 ff ff ff 	mov    -0x98(%rbp),%rdx
    3ddf:	48 8b 45 e0          	mov    -0x20(%rbp),%rax
    3de3:	48 01 d0             	add    %rdx,%rax
    3de6:	c6 00 27             	movb   $0x27,(%rax)
    3de9:	48 83 45 e0 01       	addq   $0x1,-0x20(%rbp)
    3dee:	c6 45 c5 00          	movb   $0x0,-0x3b(%rbp)
    3df2:	48 8b 45 e0          	mov    -0x20(%rbp),%rax
    3df6:	48 3b 85 60 ff ff ff 	cmp    -0xa0(%rbp),%rax
    3dfd:	73 14                	jae    3e13 <quotearg_buffer_restyled+0xbbe>
    3dff:	48 8b 95 68 ff ff ff 	mov    -0x98(%rbp),%rdx
    3e06:	48 8b 45 e0          	mov    -0x20(%rbp),%rax
    3e0a:	48 01 c2             	add    %rax,%rdx
    3e0d:	0f b6 45 c2          	movzbl -0x3e(%rbp),%eax
    3e11:	88 02                	mov    %al,(%rdx)
    3e13:	48 83 45 e0 01       	addq   $0x1,-0x20(%rbp)
    3e18:	48 83 45 e8 01       	addq   $0x1,-0x18(%rbp)
    3e1d:	48 8b 95 58 ff ff ff 	mov    -0xa8(%rbp),%rdx
    3e24:	48 8b 45 e8          	mov    -0x18(%rbp),%rax
    3e28:	48 01 d0             	add    %rdx,%rax
    3e2b:	0f b6 00             	movzbl (%rax),%eax
    3e2e:	88 45 c2             	mov    %al,-0x3e(%rbp)
    3e31:	e9 e9 fd ff ff       	jmpq   3c1f <quotearg_buffer_restyled+0x9ca>
    3e36:	90                   	nop
    3e37:	e9 30 01 00 00       	jmpq   3f6c <quotearg_buffer_restyled+0xd17>
    3e3c:	90                   	nop
    3e3d:	eb 0d                	jmp    3e4c <quotearg_buffer_restyled+0xbf7>
    3e3f:	90                   	nop
    3e40:	eb 0a                	jmp    3e4c <quotearg_buffer_restyled+0xbf7>
    3e42:	90                   	nop
    3e43:	eb 07                	jmp    3e4c <quotearg_buffer_restyled+0xbf7>
    3e45:	90                   	nop
    3e46:	eb 04                	jmp    3e4c <quotearg_buffer_restyled+0xbf7>
    3e48:	90                   	nop
    3e49:	eb 01                	jmp    3e4c <quotearg_buffer_restyled+0xbf7>
    3e4b:	90                   	nop
    3e4c:	0f b6 45 c7          	movzbl -0x39(%rbp),%eax
    3e50:	83 f0 01             	xor    $0x1,%eax
    3e53:	84 c0                	test   %al,%al
    3e55:	75 09                	jne    3e60 <quotearg_buffer_restyled+0xc0b>
    3e57:	83 bd 4c ff ff ff 02 	cmpl   $0x2,-0xb4(%rbp)
    3e5e:	75 0b                	jne    3e6b <quotearg_buffer_restyled+0xc16>
    3e60:	0f b6 45 c6          	movzbl -0x3a(%rbp),%eax
    3e64:	83 f0 01             	xor    $0x1,%eax
    3e67:	84 c0                	test   %al,%al
    3e69:	75 36                	jne    3ea1 <quotearg_buffer_restyled+0xc4c>
    3e6b:	48 83 7d 10 00       	cmpq   $0x0,0x10(%rbp)
    3e70:	74 2f                	je     3ea1 <quotearg_buffer_restyled+0xc4c>
    3e72:	0f b6 45 c2          	movzbl -0x3e(%rbp),%eax
    3e76:	c0 e8 05             	shr    $0x5,%al
    3e79:	0f b6 c0             	movzbl %al,%eax
    3e7c:	48 8d 14 85 00 00 00 	lea    0x0(,%rax,4),%rdx
    3e83:	00 
    3e84:	48 8b 45 10          	mov    0x10(%rbp),%rax
    3e88:	48 01 d0             	add    %rdx,%rax
    3e8b:	8b 10                	mov    (%rax),%edx
    3e8d:	0f b6 45 c2          	movzbl -0x3e(%rbp),%eax
    3e91:	83 e0 1f             	and    $0x1f,%eax
    3e94:	89 c1                	mov    %eax,%ecx
    3e96:	d3 ea                	shr    %cl,%edx
    3e98:	89 d0                	mov    %edx,%eax
    3e9a:	83 e0 01             	and    $0x1,%eax
    3e9d:	85 c0                	test   %eax,%eax
    3e9f:	75 0f                	jne    3eb0 <quotearg_buffer_restyled+0xc5b>
    3ea1:	0f b6 45 c0          	movzbl -0x40(%rbp),%eax
    3ea5:	83 f0 01             	xor    $0x1,%eax
    3ea8:	84 c0                	test   %al,%al
    3eaa:	0f 85 bb 00 00 00    	jne    3f6b <quotearg_buffer_restyled+0xd16>
    3eb0:	90                   	nop
    3eb1:	80 7d c6 00          	cmpb   $0x0,-0x3a(%rbp)
    3eb5:	0f 85 ae 02 00 00    	jne    4169 <quotearg_buffer_restyled+0xf14>
    3ebb:	c6 45 bf 01          	movb   $0x1,-0x41(%rbp)
    3ebf:	83 bd 4c ff ff ff 02 	cmpl   $0x2,-0xb4(%rbp)
    3ec6:	75 78                	jne    3f40 <quotearg_buffer_restyled+0xceb>
    3ec8:	0f b6 45 c5          	movzbl -0x3b(%rbp),%eax
    3ecc:	83 f0 01             	xor    $0x1,%eax
    3ecf:	84 c0                	test   %al,%al
    3ed1:	74 6d                	je     3f40 <quotearg_buffer_restyled+0xceb>
    3ed3:	48 8b 45 e0          	mov    -0x20(%rbp),%rax
    3ed7:	48 3b 85 60 ff ff ff 	cmp    -0xa0(%rbp),%rax
    3ede:	73 11                	jae    3ef1 <quotearg_buffer_restyled+0xc9c>
    3ee0:	48 8b 95 68 ff ff ff 	mov    -0x98(%rbp),%rdx
    3ee7:	48 8b 45 e0          	mov    -0x20(%rbp),%rax
    3eeb:	48 01 d0             	add    %rdx,%rax
    3eee:	c6 00 27             	movb   $0x27,(%rax)
    3ef1:	48 83 45 e0 01       	addq   $0x1,-0x20(%rbp)
    3ef6:	48 8b 45 e0          	mov    -0x20(%rbp),%rax
    3efa:	48 3b 85 60 ff ff ff 	cmp    -0xa0(%rbp),%rax
    3f01:	73 11                	jae    3f14 <quotearg_buffer_restyled+0xcbf>
    3f03:	48 8b 95 68 ff ff ff 	mov    -0x98(%rbp),%rdx
    3f0a:	48 8b 45 e0          	mov    -0x20(%rbp),%rax
    3f0e:	48 01 d0             	add    %rdx,%rax
    3f11:	c6 00 24             	movb   $0x24,(%rax)
    3f14:	48 83 45 e0 01       	addq   $0x1,-0x20(%rbp)
    3f19:	48 8b 45 e0          	mov    -0x20(%rbp),%rax
    3f1d:	48 3b 85 60 ff ff ff 	cmp    -0xa0(%rbp),%rax
    3f24:	73 11                	jae    3f37 <quotearg_buffer_restyled+0xce2>
    3f26:	48 8b 95 68 ff ff ff 	mov    -0x98(%rbp),%rdx
    3f2d:	48 8b 45 e0          	mov    -0x20(%rbp),%rax
    3f31:	48 01 d0             	add    %rdx,%rax
    3f34:	c6 00 27             	movb   $0x27,(%rax)
    3f37:	48 83 45 e0 01       	addq   $0x1,-0x20(%rbp)
    3f3c:	c6 45 c5 01          	movb   $0x1,-0x3b(%rbp)
    3f40:	48 8b 45 e0          	mov    -0x20(%rbp),%rax
    3f44:	48 3b 85 60 ff ff ff 	cmp    -0xa0(%rbp),%rax
    3f4b:	73 11                	jae    3f5e <quotearg_buffer_restyled+0xd09>
    3f4d:	48 8b 95 68 ff ff ff 	mov    -0x98(%rbp),%rdx
    3f54:	48 8b 45 e0          	mov    -0x20(%rbp),%rax
    3f58:	48 01 d0             	add    %rdx,%rax
    3f5b:	c6 00 5c             	movb   $0x5c,(%rax)
    3f5e:	48 83 45 e0 01       	addq   $0x1,-0x20(%rbp)
    3f63:	eb 07                	jmp    3f6c <quotearg_buffer_restyled+0xd17>
    3f65:	90                   	nop
    3f66:	eb 04                	jmp    3f6c <quotearg_buffer_restyled+0xd17>
    3f68:	90                   	nop
    3f69:	eb 01                	jmp    3f6c <quotearg_buffer_restyled+0xd17>
    3f6b:	90                   	nop
    3f6c:	80 7d c5 00          	cmpb   $0x0,-0x3b(%rbp)
    3f70:	74 55                	je     3fc7 <quotearg_buffer_restyled+0xd72>
    3f72:	0f b6 45 bf          	movzbl -0x41(%rbp),%eax
    3f76:	83 f0 01             	xor    $0x1,%eax
    3f79:	84 c0                	test   %al,%al
    3f7b:	74 4a                	je     3fc7 <quotearg_buffer_restyled+0xd72>
    3f7d:	48 8b 45 e0          	mov    -0x20(%rbp),%rax
    3f81:	48 3b 85 60 ff ff ff 	cmp    -0xa0(%rbp),%rax
    3f88:	73 11                	jae    3f9b <quotearg_buffer_restyled+0xd46>
    3f8a:	48 8b 95 68 ff ff ff 	mov    -0x98(%rbp),%rdx
    3f91:	48 8b 45 e0          	mov    -0x20(%rbp),%rax
    3f95:	48 01 d0             	add    %rdx,%rax
    3f98:	c6 00 27             	movb   $0x27,(%rax)
    3f9b:	48 83 45 e0 01       	addq   $0x1,-0x20(%rbp)
    3fa0:	48 8b 45 e0          	mov    -0x20(%rbp),%rax
    3fa4:	48 3b 85 60 ff ff ff 	cmp    -0xa0(%rbp),%rax
    3fab:	73 11                	jae    3fbe <quotearg_buffer_restyled+0xd69>
    3fad:	48 8b 95 68 ff ff ff 	mov    -0x98(%rbp),%rdx
    3fb4:	48 8b 45 e0          	mov    -0x20(%rbp),%rax
    3fb8:	48 01 d0             	add    %rdx,%rax
    3fbb:	c6 00 27             	movb   $0x27,(%rax)
    3fbe:	48 83 45 e0 01       	addq   $0x1,-0x20(%rbp)
    3fc3:	c6 45 c5 00          	movb   $0x0,-0x3b(%rbp)
    3fc7:	48 8b 45 e0          	mov    -0x20(%rbp),%rax
    3fcb:	48 3b 85 60 ff ff ff 	cmp    -0xa0(%rbp),%rax
    3fd2:	73 14                	jae    3fe8 <quotearg_buffer_restyled+0xd93>
    3fd4:	48 8b 95 68 ff ff ff 	mov    -0x98(%rbp),%rdx
    3fdb:	48 8b 45 e0          	mov    -0x20(%rbp),%rax
    3fdf:	48 01 c2             	add    %rax,%rdx
    3fe2:	0f b6 45 c2          	movzbl -0x3e(%rbp),%eax
    3fe6:	88 02                	mov    %al,(%rdx)
    3fe8:	48 83 45 e0 01       	addq   $0x1,-0x20(%rbp)
    3fed:	0f b6 45 be          	movzbl -0x42(%rbp),%eax
    3ff1:	83 f0 01             	xor    $0x1,%eax
    3ff4:	84 c0                	test   %al,%al
    3ff6:	74 04                	je     3ffc <quotearg_buffer_restyled+0xda7>
    3ff8:	c6 45 c3 00          	movb   $0x0,-0x3d(%rbp)
    3ffc:	48 83 45 e8 01       	addq   $0x1,-0x18(%rbp)
    4001:	48 83 bd 50 ff ff ff 	cmpq   $0xffffffffffffffff,-0xb0(%rbp)
    4008:	ff 
    4009:	75 18                	jne    4023 <quotearg_buffer_restyled+0xdce>
    400b:	48 8b 95 58 ff ff ff 	mov    -0xa8(%rbp),%rdx
    4012:	48 8b 45 e8          	mov    -0x18(%rbp),%rax
    4016:	48 01 d0             	add    %rdx,%rax
    4019:	0f b6 00             	movzbl (%rax),%eax
    401c:	84 c0                	test   %al,%al
    401e:	0f 95 c0             	setne  %al
    4021:	eb 0e                	jmp    4031 <quotearg_buffer_restyled+0xddc>
    4023:	48 8b 45 e8          	mov    -0x18(%rbp),%rax
    4027:	48 3b 85 50 ff ff ff 	cmp    -0xb0(%rbp),%rax
    402e:	0f 95 c0             	setne  %al
    4031:	84 c0                	test   %al,%al
    4033:	0f 85 5b f4 ff ff    	jne    3494 <quotearg_buffer_restyled+0x23f>
    4039:	48 83 7d e0 00       	cmpq   $0x0,-0x20(%rbp)
    403e:	75 13                	jne    4053 <quotearg_buffer_restyled+0xdfe>
    4040:	83 bd 4c ff ff ff 02 	cmpl   $0x2,-0xb4(%rbp)
    4047:	75 0a                	jne    4053 <quotearg_buffer_restyled+0xdfe>
    4049:	80 7d c6 00          	cmpb   $0x0,-0x3a(%rbp)
    404d:	0f 85 19 01 00 00    	jne    416c <quotearg_buffer_restyled+0xf17>
    4053:	83 bd 4c ff ff ff 02 	cmpl   $0x2,-0xb4(%rbp)
    405a:	0f 85 86 00 00 00    	jne    40e6 <quotearg_buffer_restyled+0xe91>
    4060:	0f b6 45 c6          	movzbl -0x3a(%rbp),%eax
    4064:	83 f0 01             	xor    $0x1,%eax
    4067:	84 c0                	test   %al,%al
    4069:	74 7b                	je     40e6 <quotearg_buffer_restyled+0xe91>
    406b:	80 7d c4 00          	cmpb   $0x0,-0x3c(%rbp)
    406f:	74 75                	je     40e6 <quotearg_buffer_restyled+0xe91>
    4071:	80 7d c3 00          	cmpb   $0x0,-0x3d(%rbp)
    4075:	74 46                	je     40bd <quotearg_buffer_restyled+0xe68>
    4077:	8b bd 48 ff ff ff    	mov    -0xb8(%rbp),%edi
    407d:	48 8b 8d 50 ff ff ff 	mov    -0xb0(%rbp),%rcx
    4084:	48 8b 95 58 ff ff ff 	mov    -0xa8(%rbp),%rdx
    408b:	48 8b 75 d8          	mov    -0x28(%rbp),%rsi
    408f:	48 8b 85 68 ff ff ff 	mov    -0x98(%rbp),%rax
    4096:	48 83 ec 08          	sub    $0x8,%rsp
    409a:	ff 75 20             	pushq  0x20(%rbp)
    409d:	ff 75 18             	pushq  0x18(%rbp)
    40a0:	ff 75 10             	pushq  0x10(%rbp)
    40a3:	41 89 f9             	mov    %edi,%r9d
    40a6:	41 b8 05 00 00 00    	mov    $0x5,%r8d
    40ac:	48 89 c7             	mov    %rax,%rdi
    40af:	e8 a1 f1 ff ff       	callq  3255 <quotearg_buffer_restyled>
    40b4:	48 83 c4 20          	add    $0x20,%rsp
    40b8:	e9 15 01 00 00       	jmpq   41d2 <quotearg_buffer_restyled+0xf7d>
    40bd:	48 83 bd 60 ff ff ff 	cmpq   $0x0,-0xa0(%rbp)
    40c4:	00 
    40c5:	75 1f                	jne    40e6 <quotearg_buffer_restyled+0xe91>
    40c7:	48 83 7d d8 00       	cmpq   $0x0,-0x28(%rbp)
    40cc:	74 18                	je     40e6 <quotearg_buffer_restyled+0xe91>
    40ce:	48 8b 45 d8          	mov    -0x28(%rbp),%rax
    40d2:	48 89 85 60 ff ff ff 	mov    %rax,-0xa0(%rbp)
    40d9:	48 c7 45 e0 00 00 00 	movq   $0x0,-0x20(%rbp)
    40e0:	00 
    40e1:	e9 f5 f1 ff ff       	jmpq   32db <quotearg_buffer_restyled+0x86>
    40e6:	48 83 7d d0 00       	cmpq   $0x0,-0x30(%rbp)
    40eb:	74 46                	je     4133 <quotearg_buffer_restyled+0xede>
    40ed:	0f b6 45 c6          	movzbl -0x3a(%rbp),%eax
    40f1:	83 f0 01             	xor    $0x1,%eax
    40f4:	84 c0                	test   %al,%al
    40f6:	74 3b                	je     4133 <quotearg_buffer_restyled+0xede>
    40f8:	eb 2e                	jmp    4128 <quotearg_buffer_restyled+0xed3>
    40fa:	48 8b 45 e0          	mov    -0x20(%rbp),%rax
    40fe:	48 3b 85 60 ff ff ff 	cmp    -0xa0(%rbp),%rax
    4105:	73 17                	jae    411e <quotearg_buffer_restyled+0xec9>
    4107:	48 8b 95 68 ff ff ff 	mov    -0x98(%rbp),%rdx
    410e:	48 8b 45 e0          	mov    -0x20(%rbp),%rax
    4112:	48 01 c2             	add    %rax,%rdx
    4115:	48 8b 45 d0          	mov    -0x30(%rbp),%rax
    4119:	0f b6 00             	movzbl (%rax),%eax
    411c:	88 02                	mov    %al,(%rdx)
    411e:	48 83 45 e0 01       	addq   $0x1,-0x20(%rbp)
    4123:	48 83 45 d0 01       	addq   $0x1,-0x30(%rbp)
    4128:	48 8b 45 d0          	mov    -0x30(%rbp),%rax
    412c:	0f b6 00             	movzbl (%rax),%eax
    412f:	84 c0                	test   %al,%al
    4131:	75 c7                	jne    40fa <quotearg_buffer_restyled+0xea5>
    4133:	48 8b 45 e0          	mov    -0x20(%rbp),%rax
    4137:	48 3b 85 60 ff ff ff 	cmp    -0xa0(%rbp),%rax
    413e:	73 11                	jae    4151 <quotearg_buffer_restyled+0xefc>
    4140:	48 8b 95 68 ff ff ff 	mov    -0x98(%rbp),%rdx
    4147:	48 8b 45 e0          	mov    -0x20(%rbp),%rax
    414b:	48 01 d0             	add    %rdx,%rax
    414e:	c6 00 00             	movb   $0x0,(%rax)
    4151:	48 8b 45 e0          	mov    -0x20(%rbp),%rax
    4155:	eb 7b                	jmp    41d2 <quotearg_buffer_restyled+0xf7d>
    4157:	90                   	nop
    4158:	eb 13                	jmp    416d <quotearg_buffer_restyled+0xf18>
    415a:	90                   	nop
    415b:	eb 10                	jmp    416d <quotearg_buffer_restyled+0xf18>
    415d:	90                   	nop
    415e:	eb 0d                	jmp    416d <quotearg_buffer_restyled+0xf18>
    4160:	90                   	nop
    4161:	eb 0a                	jmp    416d <quotearg_buffer_restyled+0xf18>
    4163:	90                   	nop
    4164:	eb 07                	jmp    416d <quotearg_buffer_restyled+0xf18>
    4166:	90                   	nop
    4167:	eb 04                	jmp    416d <quotearg_buffer_restyled+0xf18>
    4169:	90                   	nop
    416a:	eb 01                	jmp    416d <quotearg_buffer_restyled+0xf18>
    416c:	90                   	nop
    416d:	83 bd 4c ff ff ff 02 	cmpl   $0x2,-0xb4(%rbp)
    4174:	75 10                	jne    4186 <quotearg_buffer_restyled+0xf31>
    4176:	80 7d c7 00          	cmpb   $0x0,-0x39(%rbp)
    417a:	74 0a                	je     4186 <quotearg_buffer_restyled+0xf31>
    417c:	c7 85 4c ff ff ff 04 	movl   $0x4,-0xb4(%rbp)
    4183:	00 00 00 
    4186:	8b 85 48 ff ff ff    	mov    -0xb8(%rbp),%eax
    418c:	83 e0 fd             	and    $0xfffffffd,%eax
    418f:	41 89 c0             	mov    %eax,%r8d
    4192:	8b bd 4c ff ff ff    	mov    -0xb4(%rbp),%edi
    4198:	48 8b 8d 50 ff ff ff 	mov    -0xb0(%rbp),%rcx
    419f:	48 8b 95 58 ff ff ff 	mov    -0xa8(%rbp),%rdx
    41a6:	48 8b b5 60 ff ff ff 	mov    -0xa0(%rbp),%rsi
    41ad:	48 8b 85 68 ff ff ff 	mov    -0x98(%rbp),%rax
    41b4:	48 83 ec 08          	sub    $0x8,%rsp
    41b8:	ff 75 20             	pushq  0x20(%rbp)
    41bb:	ff 75 18             	pushq  0x18(%rbp)
    41be:	6a 00                	pushq  $0x0
    41c0:	45 89 c1             	mov    %r8d,%r9d
    41c3:	41 89 f8             	mov    %edi,%r8d
    41c6:	48 89 c7             	mov    %rax,%rdi
    41c9:	e8 87 f0 ff ff       	callq  3255 <quotearg_buffer_restyled>
    41ce:	48 83 c4 20          	add    $0x20,%rsp
    41d2:	48 8b 5d f8          	mov    -0x8(%rbp),%rbx
    41d6:	c9                   	leaveq 
    41d7:	c3                   	retq   

00000000000041d8 <quotearg_buffer>:
    41d8:	55                   	push   %rbp
    41d9:	48 89 e5             	mov    %rsp,%rbp
    41dc:	48 83 ec 50          	sub    $0x50,%rsp
    41e0:	48 89 7d d8          	mov    %rdi,-0x28(%rbp)
    41e4:	48 89 75 d0          	mov    %rsi,-0x30(%rbp)
    41e8:	48 89 55 c8          	mov    %rdx,-0x38(%rbp)
    41ec:	48 89 4d c0          	mov    %rcx,-0x40(%rbp)
    41f0:	4c 89 45 b8          	mov    %r8,-0x48(%rbp)
    41f4:	48 83 7d b8 00       	cmpq   $0x0,-0x48(%rbp)
    41f9:	74 06                	je     4201 <quotearg_buffer+0x29>
    41fb:	48 8b 45 b8          	mov    -0x48(%rbp),%rax
    41ff:	eb 07                	jmp    4208 <quotearg_buffer+0x30>
    4201:	48 8d 05 98 60 00 00 	lea    0x6098(%rip),%rax        # a2a0 <default_quoting_options>
    4208:	48 89 45 f8          	mov    %rax,-0x8(%rbp)
    420c:	e8 3f de ff ff       	callq  2050 <__errno_location@plt>
    4211:	8b 00                	mov    (%rax),%eax
    4213:	89 45 f4             	mov    %eax,-0xc(%rbp)
    4216:	48 8b 45 f8          	mov    -0x8(%rbp),%rax
    421a:	4c 8b 40 30          	mov    0x30(%rax),%r8
    421e:	48 8b 45 f8          	mov    -0x8(%rbp),%rax
    4222:	48 8b 78 28          	mov    0x28(%rax),%rdi
    4226:	48 8b 45 f8          	mov    -0x8(%rbp),%rax
    422a:	4c 8d 48 08          	lea    0x8(%rax),%r9
    422e:	48 8b 45 f8          	mov    -0x8(%rbp),%rax
    4232:	44 8b 58 04          	mov    0x4(%rax),%r11d
    4236:	48 8b 45 f8          	mov    -0x8(%rbp),%rax
    423a:	44 8b 10             	mov    (%rax),%r10d
    423d:	48 8b 4d c0          	mov    -0x40(%rbp),%rcx
    4241:	48 8b 55 c8          	mov    -0x38(%rbp),%rdx
    4245:	48 8b 75 d0          	mov    -0x30(%rbp),%rsi
    4249:	48 8b 45 d8          	mov    -0x28(%rbp),%rax
    424d:	48 83 ec 08          	sub    $0x8,%rsp
    4251:	41 50                	push   %r8
    4253:	57                   	push   %rdi
    4254:	41 51                	push   %r9
    4256:	45 89 d9             	mov    %r11d,%r9d
    4259:	45 89 d0             	mov    %r10d,%r8d
    425c:	48 89 c7             	mov    %rax,%rdi
    425f:	e8 f1 ef ff ff       	callq  3255 <quotearg_buffer_restyled>
    4264:	48 83 c4 20          	add    $0x20,%rsp
    4268:	48 89 45 e8          	mov    %rax,-0x18(%rbp)
    426c:	e8 df dd ff ff       	callq  2050 <__errno_location@plt>
    4271:	8b 55 f4             	mov    -0xc(%rbp),%edx
    4274:	89 10                	mov    %edx,(%rax)
    4276:	48 8b 45 e8          	mov    -0x18(%rbp),%rax
    427a:	c9                   	leaveq 
    427b:	c3                   	retq   

000000000000427c <quotearg_alloc>:
    427c:	55                   	push   %rbp
    427d:	48 89 e5             	mov    %rsp,%rbp
    4280:	48 83 ec 20          	sub    $0x20,%rsp
    4284:	48 89 7d f8          	mov    %rdi,-0x8(%rbp)
    4288:	48 89 75 f0          	mov    %rsi,-0x10(%rbp)
    428c:	48 89 55 e8          	mov    %rdx,-0x18(%rbp)
    4290:	48 8b 55 e8          	mov    -0x18(%rbp),%rdx
    4294:	48 8b 75 f0          	mov    -0x10(%rbp),%rsi
    4298:	48 8b 45 f8          	mov    -0x8(%rbp),%rax
    429c:	48 89 d1             	mov    %rdx,%rcx
    429f:	ba 00 00 00 00       	mov    $0x0,%edx
    42a4:	48 89 c7             	mov    %rax,%rdi
    42a7:	e8 02 00 00 00       	callq  42ae <quotearg_alloc_mem>
    42ac:	c9                   	leaveq 
    42ad:	c3                   	retq   

00000000000042ae <quotearg_alloc_mem>:
    42ae:	55                   	push   %rbp
    42af:	48 89 e5             	mov    %rsp,%rbp
    42b2:	48 83 ec 40          	sub    $0x40,%rsp
    42b6:	48 89 7d d8          	mov    %rdi,-0x28(%rbp)
    42ba:	48 89 75 d0          	mov    %rsi,-0x30(%rbp)
    42be:	48 89 55 c8          	mov    %rdx,-0x38(%rbp)
    42c2:	48 89 4d c0          	mov    %rcx,-0x40(%rbp)
    42c6:	48 83 7d c0 00       	cmpq   $0x0,-0x40(%rbp)
    42cb:	74 06                	je     42d3 <quotearg_alloc_mem+0x25>
    42cd:	48 8b 45 c0          	mov    -0x40(%rbp),%rax
    42d1:	eb 07                	jmp    42da <quotearg_alloc_mem+0x2c>
    42d3:	48 8d 05 c6 5f 00 00 	lea    0x5fc6(%rip),%rax        # a2a0 <default_quoting_options>
    42da:	48 89 45 f8          	mov    %rax,-0x8(%rbp)
    42de:	e8 6d dd ff ff       	callq  2050 <__errno_location@plt>
    42e3:	8b 00                	mov    (%rax),%eax
    42e5:	89 45 f4             	mov    %eax,-0xc(%rbp)
    42e8:	48 8b 45 f8          	mov    -0x8(%rbp),%rax
    42ec:	8b 50 04             	mov    0x4(%rax),%edx
    42ef:	48 83 7d c8 00       	cmpq   $0x0,-0x38(%rbp)
    42f4:	0f 94 c0             	sete   %al
    42f7:	0f b6 c0             	movzbl %al,%eax
    42fa:	09 d0                	or     %edx,%eax
    42fc:	89 45 f0             	mov    %eax,-0x10(%rbp)
    42ff:	48 8b 45 f8          	mov    -0x8(%rbp),%rax
    4303:	48 8b 70 30          	mov    0x30(%rax),%rsi
    4307:	48 8b 45 f8          	mov    -0x8(%rbp),%rax
    430b:	48 8b 48 28          	mov    0x28(%rax),%rcx
    430f:	48 8b 45 f8          	mov    -0x8(%rbp),%rax
    4313:	48 8d 78 08          	lea    0x8(%rax),%rdi
    4317:	48 8b 45 f8          	mov    -0x8(%rbp),%rax
    431b:	44 8b 00             	mov    (%rax),%r8d
    431e:	44 8b 4d f0          	mov    -0x10(%rbp),%r9d
    4322:	48 8b 55 d0          	mov    -0x30(%rbp),%rdx
    4326:	48 8b 45 d8          	mov    -0x28(%rbp),%rax
    432a:	48 83 ec 08          	sub    $0x8,%rsp
    432e:	56                   	push   %rsi
    432f:	51                   	push   %rcx
    4330:	57                   	push   %rdi
    4331:	48 89 d1             	mov    %rdx,%rcx
    4334:	48 89 c2             	mov    %rax,%rdx
    4337:	be 00 00 00 00       	mov    $0x0,%esi
    433c:	bf 00 00 00 00       	mov    $0x0,%edi
    4341:	e8 0f ef ff ff       	callq  3255 <quotearg_buffer_restyled>
    4346:	48 83 c4 20          	add    $0x20,%rsp
    434a:	48 83 c0 01          	add    $0x1,%rax
    434e:	48 89 45 e8          	mov    %rax,-0x18(%rbp)
    4352:	48 8b 45 e8          	mov    -0x18(%rbp),%rax
    4356:	48 89 c7             	mov    %rax,%rdi
    4359:	e8 74 11 00 00       	callq  54d2 <xcharalloc>
    435e:	48 89 45 e0          	mov    %rax,-0x20(%rbp)
    4362:	48 8b 45 f8          	mov    -0x8(%rbp),%rax
    4366:	4c 8b 40 30          	mov    0x30(%rax),%r8
    436a:	48 8b 45 f8          	mov    -0x8(%rbp),%rax
    436e:	48 8b 78 28          	mov    0x28(%rax),%rdi
    4372:	48 8b 45 f8          	mov    -0x8(%rbp),%rax
    4376:	4c 8d 48 08          	lea    0x8(%rax),%r9
    437a:	48 8b 45 f8          	mov    -0x8(%rbp),%rax
    437e:	44 8b 10             	mov    (%rax),%r10d
    4381:	44 8b 5d f0          	mov    -0x10(%rbp),%r11d
    4385:	48 8b 4d d0          	mov    -0x30(%rbp),%rcx
    4389:	48 8b 55 d8          	mov    -0x28(%rbp),%rdx
    438d:	48 8b 75 e8          	mov    -0x18(%rbp),%rsi
    4391:	48 8b 45 e0          	mov    -0x20(%rbp),%rax
    4395:	48 83 ec 08          	sub    $0x8,%rsp
    4399:	41 50                	push   %r8
    439b:	57                   	push   %rdi
    439c:	41 51                	push   %r9
    439e:	45 89 d9             	mov    %r11d,%r9d
    43a1:	45 89 d0             	mov    %r10d,%r8d
    43a4:	48 89 c7             	mov    %rax,%rdi
    43a7:	e8 a9 ee ff ff       	callq  3255 <quotearg_buffer_restyled>
    43ac:	48 83 c4 20          	add    $0x20,%rsp
    43b0:	e8 9b dc ff ff       	callq  2050 <__errno_location@plt>
    43b5:	8b 55 f4             	mov    -0xc(%rbp),%edx
    43b8:	89 10                	mov    %edx,(%rax)
    43ba:	48 83 7d c8 00       	cmpq   $0x0,-0x38(%rbp)
    43bf:	74 0f                	je     43d0 <quotearg_alloc_mem+0x122>
    43c1:	48 8b 45 e8          	mov    -0x18(%rbp),%rax
    43c5:	48 8d 50 ff          	lea    -0x1(%rax),%rdx
    43c9:	48 8b 45 c8          	mov    -0x38(%rbp),%rax
    43cd:	48 89 10             	mov    %rdx,(%rax)
    43d0:	48 8b 45 e0          	mov    -0x20(%rbp),%rax
    43d4:	c9                   	leaveq 
    43d5:	c3                   	retq   

00000000000043d6 <quotearg_free>:
    43d6:	55                   	push   %rbp
    43d7:	48 89 e5             	mov    %rsp,%rbp
    43da:	48 83 ec 10          	sub    $0x10,%rsp
    43de:	48 8b 05 2b 5e 00 00 	mov    0x5e2b(%rip),%rax        # a210 <slotvec>
    43e5:	48 89 45 f0          	mov    %rax,-0x10(%rbp)
    43e9:	c7 45 fc 01 00 00 00 	movl   $0x1,-0x4(%rbp)
    43f0:	eb 23                	jmp    4415 <quotearg_free+0x3f>
    43f2:	8b 45 fc             	mov    -0x4(%rbp),%eax
    43f5:	48 98                	cltq   
    43f7:	48 c1 e0 04          	shl    $0x4,%rax
    43fb:	48 89 c2             	mov    %rax,%rdx
    43fe:	48 8b 45 f0          	mov    -0x10(%rbp),%rax
    4402:	48 01 d0             	add    %rdx,%rax
    4405:	48 8b 40 08          	mov    0x8(%rax),%rax
    4409:	48 89 c7             	mov    %rax,%rdi
    440c:	e8 f5 e9 ff ff       	callq  2e06 <rpl_free>
    4411:	83 45 fc 01          	addl   $0x1,-0x4(%rbp)
    4415:	8b 05 85 5d 00 00    	mov    0x5d85(%rip),%eax        # a1a0 <nslots>
    441b:	39 45 fc             	cmp    %eax,-0x4(%rbp)
    441e:	7c d2                	jl     43f2 <quotearg_free+0x1c>
    4420:	48 8b 45 f0          	mov    -0x10(%rbp),%rax
    4424:	48 8b 40 08          	mov    0x8(%rax),%rax
    4428:	48 8d 15 b1 5e 00 00 	lea    0x5eb1(%rip),%rdx        # a2e0 <slot0>
    442f:	48 39 d0             	cmp    %rdx,%rax
    4432:	74 29                	je     445d <quotearg_free+0x87>
    4434:	48 8b 45 f0          	mov    -0x10(%rbp),%rax
    4438:	48 8b 40 08          	mov    0x8(%rax),%rax
    443c:	48 89 c7             	mov    %rax,%rdi
    443f:	e8 c2 e9 ff ff       	callq  2e06 <rpl_free>
    4444:	48 c7 05 b1 5d 00 00 	movq   $0x100,0x5db1(%rip)        # a200 <slotvec0>
    444b:	00 01 00 00 
    444f:	48 8d 05 8a 5e 00 00 	lea    0x5e8a(%rip),%rax        # a2e0 <slot0>
    4456:	48 89 05 ab 5d 00 00 	mov    %rax,0x5dab(%rip)        # a208 <slotvec0+0x8>
    445d:	48 8d 05 9c 5d 00 00 	lea    0x5d9c(%rip),%rax        # a200 <slotvec0>
    4464:	48 39 45 f0          	cmp    %rax,-0x10(%rbp)
    4468:	74 1a                	je     4484 <quotearg_free+0xae>
    446a:	48 8b 45 f0          	mov    -0x10(%rbp),%rax
    446e:	48 89 c7             	mov    %rax,%rdi
    4471:	e8 90 e9 ff ff       	callq  2e06 <rpl_free>
    4476:	48 8d 05 83 5d 00 00 	lea    0x5d83(%rip),%rax        # a200 <slotvec0>
    447d:	48 89 05 8c 5d 00 00 	mov    %rax,0x5d8c(%rip)        # a210 <slotvec>
    4484:	c7 05 12 5d 00 00 01 	movl   $0x1,0x5d12(%rip)        # a1a0 <nslots>
    448b:	00 00 00 
    448e:	90                   	nop
    448f:	c9                   	leaveq 
    4490:	c3                   	retq   

0000000000004491 <quotearg_n_options>:
    4491:	55                   	push   %rbp
    4492:	48 89 e5             	mov    %rsp,%rbp
    4495:	48 83 ec 60          	sub    $0x60,%rsp
    4499:	89 7d bc             	mov    %edi,-0x44(%rbp)
    449c:	48 89 75 b0          	mov    %rsi,-0x50(%rbp)
    44a0:	48 89 55 a8          	mov    %rdx,-0x58(%rbp)
    44a4:	48 89 4d a0          	mov    %rcx,-0x60(%rbp)
    44a8:	e8 a3 db ff ff       	callq  2050 <__errno_location@plt>
    44ad:	8b 00                	mov    (%rax),%eax
    44af:	89 45 ec             	mov    %eax,-0x14(%rbp)
    44b2:	48 8b 05 57 5d 00 00 	mov    0x5d57(%rip),%rax        # a210 <slotvec>
    44b9:	48 89 45 f8          	mov    %rax,-0x8(%rbp)
    44bd:	c7 45 e8 ff ff ff 7f 	movl   $0x7fffffff,-0x18(%rbp)
    44c4:	83 7d bc 00          	cmpl   $0x0,-0x44(%rbp)
    44c8:	78 08                	js     44d2 <quotearg_n_options+0x41>
    44ca:	8b 45 bc             	mov    -0x44(%rbp),%eax
    44cd:	3b 45 e8             	cmp    -0x18(%rbp),%eax
    44d0:	7c 05                	jl     44d7 <quotearg_n_options+0x46>
    44d2:	e8 69 db ff ff       	callq  2040 <abort@plt>
    44d7:	8b 05 c3 5c 00 00    	mov    0x5cc3(%rip),%eax        # a1a0 <nslots>
    44dd:	39 45 bc             	cmp    %eax,-0x44(%rbp)
    44e0:	0f 8c c9 00 00 00    	jl     45af <quotearg_n_options+0x11e>
    44e6:	48 8d 05 13 5d 00 00 	lea    0x5d13(%rip),%rax        # a200 <slotvec0>
    44ed:	48 39 45 f8          	cmp    %rax,-0x8(%rbp)
    44f1:	0f 94 c0             	sete   %al
    44f4:	88 45 e7             	mov    %al,-0x19(%rbp)
    44f7:	8b 05 a3 5c 00 00    	mov    0x5ca3(%rip),%eax        # a1a0 <nslots>
    44fd:	48 98                	cltq   
    44ff:	48 89 45 c0          	mov    %rax,-0x40(%rbp)
    4503:	8b 45 e8             	mov    -0x18(%rbp),%eax
    4506:	48 63 c8             	movslq %eax,%rcx
    4509:	8b 15 91 5c 00 00    	mov    0x5c91(%rip),%edx        # a1a0 <nslots>
    450f:	8b 45 bc             	mov    -0x44(%rbp),%eax
    4512:	29 d0                	sub    %edx,%eax
    4514:	83 c0 01             	add    $0x1,%eax
    4517:	48 63 d0             	movslq %eax,%rdx
    451a:	80 7d e7 00          	cmpb   $0x0,-0x19(%rbp)
    451e:	74 07                	je     4527 <quotearg_n_options+0x96>
    4520:	b8 00 00 00 00       	mov    $0x0,%eax
    4525:	eb 04                	jmp    452b <quotearg_n_options+0x9a>
    4527:	48 8b 45 f8          	mov    -0x8(%rbp),%rax
    452b:	48 8d 75 c0          	lea    -0x40(%rbp),%rsi
    452f:	41 b8 10 00 00 00    	mov    $0x10,%r8d
    4535:	48 89 c7             	mov    %rax,%rdi
    4538:	e8 de 11 00 00       	callq  571b <xpalloc>
    453d:	48 89 45 f8          	mov    %rax,-0x8(%rbp)
    4541:	48 8b 45 f8          	mov    -0x8(%rbp),%rax
    4545:	48 89 05 c4 5c 00 00 	mov    %rax,0x5cc4(%rip)        # a210 <slotvec>
    454c:	80 7d e7 00          	cmpb   $0x0,-0x19(%rbp)
    4550:	74 19                	je     456b <quotearg_n_options+0xda>
    4552:	48 8b 4d f8          	mov    -0x8(%rbp),%rcx
    4556:	48 8b 05 a3 5c 00 00 	mov    0x5ca3(%rip),%rax        # a200 <slotvec0>
    455d:	48 8b 15 a4 5c 00 00 	mov    0x5ca4(%rip),%rdx        # a208 <slotvec0+0x8>
    4564:	48 89 01             	mov    %rax,(%rcx)
    4567:	48 89 51 08          	mov    %rdx,0x8(%rcx)
    456b:	48 8b 45 c0          	mov    -0x40(%rbp),%rax
    456f:	8b 15 2b 5c 00 00    	mov    0x5c2b(%rip),%edx        # a1a0 <nslots>
    4575:	48 63 d2             	movslq %edx,%rdx
    4578:	48 29 d0             	sub    %rdx,%rax
    457b:	48 c1 e0 04          	shl    $0x4,%rax
    457f:	48 89 c2             	mov    %rax,%rdx
    4582:	8b 05 18 5c 00 00    	mov    0x5c18(%rip),%eax        # a1a0 <nslots>
    4588:	48 98                	cltq   
    458a:	48 c1 e0 04          	shl    $0x4,%rax
    458e:	48 89 c1             	mov    %rax,%rcx
    4591:	48 8b 45 f8          	mov    -0x8(%rbp),%rax
    4595:	48 01 c8             	add    %rcx,%rax
    4598:	be 00 00 00 00       	mov    $0x0,%esi
    459d:	48 89 c7             	mov    %rax,%rdi
    45a0:	e8 ab db ff ff       	callq  2150 <memset@plt>
    45a5:	48 8b 45 c0          	mov    -0x40(%rbp),%rax
    45a9:	89 05 f1 5b 00 00    	mov    %eax,0x5bf1(%rip)        # a1a0 <nslots>
    45af:	8b 45 bc             	mov    -0x44(%rbp),%eax
    45b2:	48 98                	cltq   
    45b4:	48 c1 e0 04          	shl    $0x4,%rax
    45b8:	48 89 c2             	mov    %rax,%rdx
    45bb:	48 8b 45 f8          	mov    -0x8(%rbp),%rax
    45bf:	48 01 d0             	add    %rdx,%rax
    45c2:	48 8b 00             	mov    (%rax),%rax
    45c5:	48 89 45 d8          	mov    %rax,-0x28(%rbp)
    45c9:	8b 45 bc             	mov    -0x44(%rbp),%eax
    45cc:	48 98                	cltq   
    45ce:	48 c1 e0 04          	shl    $0x4,%rax
    45d2:	48 89 c2             	mov    %rax,%rdx
    45d5:	48 8b 45 f8          	mov    -0x8(%rbp),%rax
    45d9:	48 01 d0             	add    %rdx,%rax
    45dc:	48 8b 40 08          	mov    0x8(%rax),%rax
    45e0:	48 89 45 f0          	mov    %rax,-0x10(%rbp)
    45e4:	48 8b 45 a0          	mov    -0x60(%rbp),%rax
    45e8:	8b 40 04             	mov    0x4(%rax),%eax
    45eb:	83 c8 01             	or     $0x1,%eax
    45ee:	89 45 d4             	mov    %eax,-0x2c(%rbp)
    45f1:	48 8b 45 a0          	mov    -0x60(%rbp),%rax
    45f5:	4c 8b 40 30          	mov    0x30(%rax),%r8
    45f9:	48 8b 45 a0          	mov    -0x60(%rbp),%rax
    45fd:	48 8b 78 28          	mov    0x28(%rax),%rdi
    4601:	48 8b 45 a0          	mov    -0x60(%rbp),%rax
    4605:	4c 8d 48 08          	lea    0x8(%rax),%r9
    4609:	48 8b 45 a0          	mov    -0x60(%rbp),%rax
    460d:	44 8b 10             	mov    (%rax),%r10d
    4610:	44 8b 5d d4          	mov    -0x2c(%rbp),%r11d
    4614:	48 8b 4d a8          	mov    -0x58(%rbp),%rcx
    4618:	48 8b 55 b0          	mov    -0x50(%rbp),%rdx
    461c:	48 8b 75 d8          	mov    -0x28(%rbp),%rsi
    4620:	48 8b 45 f0          	mov    -0x10(%rbp),%rax
    4624:	48 83 ec 08          	sub    $0x8,%rsp
    4628:	41 50                	push   %r8
    462a:	57                   	push   %rdi
    462b:	41 51                	push   %r9
    462d:	45 89 d9             	mov    %r11d,%r9d
    4630:	45 89 d0             	mov    %r10d,%r8d
    4633:	48 89 c7             	mov    %rax,%rdi
    4636:	e8 1a ec ff ff       	callq  3255 <quotearg_buffer_restyled>
    463b:	48 83 c4 20          	add    $0x20,%rsp
    463f:	48 89 45 c8          	mov    %rax,-0x38(%rbp)
    4643:	48 8b 45 d8          	mov    -0x28(%rbp),%rax
    4647:	48 3b 45 c8          	cmp    -0x38(%rbp),%rax
    464b:	0f 87 b8 00 00 00    	ja     4709 <quotearg_n_options+0x278>
    4651:	48 8b 45 c8          	mov    -0x38(%rbp),%rax
    4655:	48 83 c0 01          	add    $0x1,%rax
    4659:	48 89 45 d8          	mov    %rax,-0x28(%rbp)
    465d:	8b 45 bc             	mov    -0x44(%rbp),%eax
    4660:	48 98                	cltq   
    4662:	48 c1 e0 04          	shl    $0x4,%rax
    4666:	48 89 c2             	mov    %rax,%rdx
    4669:	48 8b 45 f8          	mov    -0x8(%rbp),%rax
    466d:	48 01 c2             	add    %rax,%rdx
    4670:	48 8b 45 d8          	mov    -0x28(%rbp),%rax
    4674:	48 89 02             	mov    %rax,(%rdx)
    4677:	48 8d 05 62 5c 00 00 	lea    0x5c62(%rip),%rax        # a2e0 <slot0>
    467e:	48 39 45 f0          	cmp    %rax,-0x10(%rbp)
    4682:	74 0c                	je     4690 <quotearg_n_options+0x1ff>
    4684:	48 8b 45 f0          	mov    -0x10(%rbp),%rax
    4688:	48 89 c7             	mov    %rax,%rdi
    468b:	e8 76 e7 ff ff       	callq  2e06 <rpl_free>
    4690:	48 8b 45 d8          	mov    -0x28(%rbp),%rax
    4694:	48 89 c7             	mov    %rax,%rdi
    4697:	e8 36 0e 00 00       	callq  54d2 <xcharalloc>
    469c:	48 89 45 f0          	mov    %rax,-0x10(%rbp)
    46a0:	8b 45 bc             	mov    -0x44(%rbp),%eax
    46a3:	48 98                	cltq   
    46a5:	48 c1 e0 04          	shl    $0x4,%rax
    46a9:	48 89 c2             	mov    %rax,%rdx
    46ac:	48 8b 45 f8          	mov    -0x8(%rbp),%rax
    46b0:	48 01 c2             	add    %rax,%rdx
    46b3:	48 8b 45 f0          	mov    -0x10(%rbp),%rax
    46b7:	48 89 42 08          	mov    %rax,0x8(%rdx)
    46bb:	48 8b 45 a0          	mov    -0x60(%rbp),%rax
    46bf:	4c 8b 40 30          	mov    0x30(%rax),%r8
    46c3:	48 8b 45 a0          	mov    -0x60(%rbp),%rax
    46c7:	48 8b 78 28          	mov    0x28(%rax),%rdi
    46cb:	48 8b 45 a0          	mov    -0x60(%rbp),%rax
    46cf:	4c 8d 48 08          	lea    0x8(%rax),%r9
    46d3:	48 8b 45 a0          	mov    -0x60(%rbp),%rax
    46d7:	44 8b 10             	mov    (%rax),%r10d
    46da:	44 8b 5d d4          	mov    -0x2c(%rbp),%r11d
    46de:	48 8b 4d a8          	mov    -0x58(%rbp),%rcx
    46e2:	48 8b 55 b0          	mov    -0x50(%rbp),%rdx
    46e6:	48 8b 75 d8          	mov    -0x28(%rbp),%rsi
    46ea:	48 8b 45 f0          	mov    -0x10(%rbp),%rax
    46ee:	48 83 ec 08          	sub    $0x8,%rsp
    46f2:	41 50                	push   %r8
    46f4:	57                   	push   %rdi
    46f5:	41 51                	push   %r9
    46f7:	45 89 d9             	mov    %r11d,%r9d
    46fa:	45 89 d0             	mov    %r10d,%r8d
    46fd:	48 89 c7             	mov    %rax,%rdi
    4700:	e8 50 eb ff ff       	callq  3255 <quotearg_buffer_restyled>
    4705:	48 83 c4 20          	add    $0x20,%rsp
    4709:	e8 42 d9 ff ff       	callq  2050 <__errno_location@plt>
    470e:	8b 55 ec             	mov    -0x14(%rbp),%edx
    4711:	89 10                	mov    %edx,(%rax)
    4713:	48 8b 45 f0          	mov    -0x10(%rbp),%rax
    4717:	c9                   	leaveq 
    4718:	c3                   	retq   

0000000000004719 <quotearg_n>:
    4719:	55                   	push   %rbp
    471a:	48 89 e5             	mov    %rsp,%rbp
    471d:	48 83 ec 10          	sub    $0x10,%rsp
    4721:	89 7d fc             	mov    %edi,-0x4(%rbp)
    4724:	48 89 75 f0          	mov    %rsi,-0x10(%rbp)
    4728:	48 8b 75 f0          	mov    -0x10(%rbp),%rsi
    472c:	8b 45 fc             	mov    -0x4(%rbp),%eax
    472f:	48 8d 0d 6a 5b 00 00 	lea    0x5b6a(%rip),%rcx        # a2a0 <default_quoting_options>
    4736:	48 c7 c2 ff ff ff ff 	mov    $0xffffffffffffffff,%rdx
    473d:	89 c7                	mov    %eax,%edi
    473f:	e8 4d fd ff ff       	callq  4491 <quotearg_n_options>
    4744:	c9                   	leaveq 
    4745:	c3                   	retq   

0000000000004746 <quotearg_n_mem>:
    4746:	55                   	push   %rbp
    4747:	48 89 e5             	mov    %rsp,%rbp
    474a:	48 83 ec 20          	sub    $0x20,%rsp
    474e:	89 7d fc             	mov    %edi,-0x4(%rbp)
    4751:	48 89 75 f0          	mov    %rsi,-0x10(%rbp)
    4755:	48 89 55 e8          	mov    %rdx,-0x18(%rbp)
    4759:	48 8b 55 e8          	mov    -0x18(%rbp),%rdx
    475d:	48 8b 75 f0          	mov    -0x10(%rbp),%rsi
    4761:	8b 45 fc             	mov    -0x4(%rbp),%eax
    4764:	48 8d 0d 35 5b 00 00 	lea    0x5b35(%rip),%rcx        # a2a0 <default_quoting_options>
    476b:	89 c7                	mov    %eax,%edi
    476d:	e8 1f fd ff ff       	callq  4491 <quotearg_n_options>
    4772:	c9                   	leaveq 
    4773:	c3                   	retq   

0000000000004774 <quotearg>:
    4774:	55                   	push   %rbp
    4775:	48 89 e5             	mov    %rsp,%rbp
    4778:	48 83 ec 10          	sub    $0x10,%rsp
    477c:	48 89 7d f8          	mov    %rdi,-0x8(%rbp)
    4780:	48 8b 45 f8          	mov    -0x8(%rbp),%rax
    4784:	48 89 c6             	mov    %rax,%rsi
    4787:	bf 00 00 00 00       	mov    $0x0,%edi
    478c:	e8 88 ff ff ff       	callq  4719 <quotearg_n>
    4791:	c9                   	leaveq 
    4792:	c3                   	retq   

0000000000004793 <quotearg_mem>:
    4793:	55                   	push   %rbp
    4794:	48 89 e5             	mov    %rsp,%rbp
    4797:	48 83 ec 10          	sub    $0x10,%rsp
    479b:	48 89 7d f8          	mov    %rdi,-0x8(%rbp)
    479f:	48 89 75 f0          	mov    %rsi,-0x10(%rbp)
    47a3:	48 8b 55 f0          	mov    -0x10(%rbp),%rdx
    47a7:	48 8b 45 f8          	mov    -0x8(%rbp),%rax
    47ab:	48 89 c6             	mov    %rax,%rsi
    47ae:	bf 00 00 00 00       	mov    $0x0,%edi
    47b3:	e8 8e ff ff ff       	callq  4746 <quotearg_n_mem>
    47b8:	c9                   	leaveq 
    47b9:	c3                   	retq   

00000000000047ba <quotearg_n_style>:
    47ba:	55                   	push   %rbp
    47bb:	48 89 e5             	mov    %rsp,%rbp
    47be:	48 83 ec 50          	sub    $0x50,%rsp
    47c2:	89 7d bc             	mov    %edi,-0x44(%rbp)
    47c5:	89 75 b8             	mov    %esi,-0x48(%rbp)
    47c8:	48 89 55 b0          	mov    %rdx,-0x50(%rbp)
    47cc:	48 8d 45 c0          	lea    -0x40(%rbp),%rax
    47d0:	8b 55 b8             	mov    -0x48(%rbp),%edx
    47d3:	89 d6                	mov    %edx,%esi
    47d5:	48 89 c7             	mov    %rax,%rdi
    47d8:	e8 1f e9 ff ff       	callq  30fc <quoting_options_from_style>
    47dd:	48 8d 55 c0          	lea    -0x40(%rbp),%rdx
    47e1:	48 8b 75 b0          	mov    -0x50(%rbp),%rsi
    47e5:	8b 45 bc             	mov    -0x44(%rbp),%eax
    47e8:	48 89 d1             	mov    %rdx,%rcx
    47eb:	48 c7 c2 ff ff ff ff 	mov    $0xffffffffffffffff,%rdx
    47f2:	89 c7                	mov    %eax,%edi
    47f4:	e8 98 fc ff ff       	callq  4491 <quotearg_n_options>
    47f9:	c9                   	leaveq 
    47fa:	c3                   	retq   

00000000000047fb <quotearg_n_style_mem>:
    47fb:	55                   	push   %rbp
    47fc:	48 89 e5             	mov    %rsp,%rbp
    47ff:	48 83 ec 60          	sub    $0x60,%rsp
    4803:	89 7d bc             	mov    %edi,-0x44(%rbp)
    4806:	89 75 b8             	mov    %esi,-0x48(%rbp)
    4809:	48 89 55 b0          	mov    %rdx,-0x50(%rbp)
    480d:	48 89 4d a8          	mov    %rcx,-0x58(%rbp)
    4811:	48 8d 45 c0          	lea    -0x40(%rbp),%rax
    4815:	8b 55 b8             	mov    -0x48(%rbp),%edx
    4818:	89 d6                	mov    %edx,%esi
    481a:	48 89 c7             	mov    %rax,%rdi
    481d:	e8 da e8 ff ff       	callq  30fc <quoting_options_from_style>
    4822:	48 8d 4d c0          	lea    -0x40(%rbp),%rcx
    4826:	48 8b 55 a8          	mov    -0x58(%rbp),%rdx
    482a:	48 8b 75 b0          	mov    -0x50(%rbp),%rsi
    482e:	8b 45 bc             	mov    -0x44(%rbp),%eax
    4831:	89 c7                	mov    %eax,%edi
    4833:	e8 59 fc ff ff       	callq  4491 <quotearg_n_options>
    4838:	c9                   	leaveq 
    4839:	c3                   	retq   

000000000000483a <quotearg_style>:
    483a:	55                   	push   %rbp
    483b:	48 89 e5             	mov    %rsp,%rbp
    483e:	48 83 ec 10          	sub    $0x10,%rsp
    4842:	89 7d fc             	mov    %edi,-0x4(%rbp)
    4845:	48 89 75 f0          	mov    %rsi,-0x10(%rbp)
    4849:	48 8b 55 f0          	mov    -0x10(%rbp),%rdx
    484d:	8b 45 fc             	mov    -0x4(%rbp),%eax
    4850:	89 c6                	mov    %eax,%esi
    4852:	bf 00 00 00 00       	mov    $0x0,%edi
    4857:	e8 5e ff ff ff       	callq  47ba <quotearg_n_style>
    485c:	c9                   	leaveq 
    485d:	c3                   	retq   

000000000000485e <quotearg_style_mem>:
    485e:	55                   	push   %rbp
    485f:	48 89 e5             	mov    %rsp,%rbp
    4862:	48 83 ec 20          	sub    $0x20,%rsp
    4866:	89 7d fc             	mov    %edi,-0x4(%rbp)
    4869:	48 89 75 f0          	mov    %rsi,-0x10(%rbp)
    486d:	48 89 55 e8          	mov    %rdx,-0x18(%rbp)
    4871:	48 8b 4d e8          	mov    -0x18(%rbp),%rcx
    4875:	48 8b 55 f0          	mov    -0x10(%rbp),%rdx
    4879:	8b 45 fc             	mov    -0x4(%rbp),%eax
    487c:	89 c6                	mov    %eax,%esi
    487e:	bf 00 00 00 00       	mov    $0x0,%edi
    4883:	e8 73 ff ff ff       	callq  47fb <quotearg_n_style_mem>
    4888:	c9                   	leaveq 
    4889:	c3                   	retq   

000000000000488a <quotearg_char_mem>:
    488a:	55                   	push   %rbp
    488b:	48 89 e5             	mov    %rsp,%rbp
    488e:	48 83 ec 60          	sub    $0x60,%rsp
    4892:	48 89 7d b8          	mov    %rdi,-0x48(%rbp)
    4896:	48 89 75 b0          	mov    %rsi,-0x50(%rbp)
    489a:	89 d0                	mov    %edx,%eax
    489c:	88 45 ac             	mov    %al,-0x54(%rbp)
    489f:	48 8b 05 fa 59 00 00 	mov    0x59fa(%rip),%rax        # a2a0 <default_quoting_options>
    48a6:	48 8b 15 fb 59 00 00 	mov    0x59fb(%rip),%rdx        # a2a8 <default_quoting_options+0x8>
    48ad:	48 89 45 c0          	mov    %rax,-0x40(%rbp)
    48b1:	48 89 55 c8          	mov    %rdx,-0x38(%rbp)
    48b5:	48 8b 05 f4 59 00 00 	mov    0x59f4(%rip),%rax        # a2b0 <default_quoting_options+0x10>
    48bc:	48 8b 15 f5 59 00 00 	mov    0x59f5(%rip),%rdx        # a2b8 <default_quoting_options+0x18>
    48c3:	48 89 45 d0          	mov    %rax,-0x30(%rbp)
    48c7:	48 89 55 d8          	mov    %rdx,-0x28(%rbp)
    48cb:	48 8b 05 ee 59 00 00 	mov    0x59ee(%rip),%rax        # a2c0 <default_quoting_options+0x20>
    48d2:	48 8b 15 ef 59 00 00 	mov    0x59ef(%rip),%rdx        # a2c8 <default_quoting_options+0x28>
    48d9:	48 89 45 e0          	mov    %rax,-0x20(%rbp)
    48dd:	48 89 55 e8          	mov    %rdx,-0x18(%rbp)
    48e1:	48 8b 05 e8 59 00 00 	mov    0x59e8(%rip),%rax        # a2d0 <default_quoting_options+0x30>
    48e8:	48 89 45 f0          	mov    %rax,-0x10(%rbp)
    48ec:	0f be 4d ac          	movsbl -0x54(%rbp),%ecx
    48f0:	48 8d 45 c0          	lea    -0x40(%rbp),%rax
    48f4:	ba 01 00 00 00       	mov    $0x1,%edx
    48f9:	89 ce                	mov    %ecx,%esi
    48fb:	48 89 c7             	mov    %rax,%rdi
    48fe:	e8 d9 e6 ff ff       	callq  2fdc <set_char_quoting>
    4903:	48 8d 4d c0          	lea    -0x40(%rbp),%rcx
    4907:	48 8b 55 b0          	mov    -0x50(%rbp),%rdx
    490b:	48 8b 45 b8          	mov    -0x48(%rbp),%rax
    490f:	48 89 c6             	mov    %rax,%rsi
    4912:	bf 00 00 00 00       	mov    $0x0,%edi
    4917:	e8 75 fb ff ff       	callq  4491 <quotearg_n_options>
    491c:	c9                   	leaveq 
    491d:	c3                   	retq   

000000000000491e <quotearg_char>:
    491e:	55                   	push   %rbp
    491f:	48 89 e5             	mov    %rsp,%rbp
    4922:	48 83 ec 10          	sub    $0x10,%rsp
    4926:	48 89 7d f8          	mov    %rdi,-0x8(%rbp)
    492a:	89 f0                	mov    %esi,%eax
    492c:	88 45 f4             	mov    %al,-0xc(%rbp)
    492f:	0f be 55 f4          	movsbl -0xc(%rbp),%edx
    4933:	48 8b 45 f8          	mov    -0x8(%rbp),%rax
    4937:	48 c7 c6 ff ff ff ff 	mov    $0xffffffffffffffff,%rsi
    493e:	48 89 c7             	mov    %rax,%rdi
    4941:	e8 44 ff ff ff       	callq  488a <quotearg_char_mem>
    4946:	c9                   	leaveq 
    4947:	c3                   	retq   

0000000000004948 <quotearg_colon>:
    4948:	55                   	push   %rbp
    4949:	48 89 e5             	mov    %rsp,%rbp
    494c:	48 83 ec 10          	sub    $0x10,%rsp
    4950:	48 89 7d f8          	mov    %rdi,-0x8(%rbp)
    4954:	48 8b 45 f8          	mov    -0x8(%rbp),%rax
    4958:	be 3a 00 00 00       	mov    $0x3a,%esi
    495d:	48 89 c7             	mov    %rax,%rdi
    4960:	e8 b9 ff ff ff       	callq  491e <quotearg_char>
    4965:	c9                   	leaveq 
    4966:	c3                   	retq   

0000000000004967 <quotearg_colon_mem>:
    4967:	55                   	push   %rbp
    4968:	48 89 e5             	mov    %rsp,%rbp
    496b:	48 83 ec 10          	sub    $0x10,%rsp
    496f:	48 89 7d f8          	mov    %rdi,-0x8(%rbp)
    4973:	48 89 75 f0          	mov    %rsi,-0x10(%rbp)
    4977:	48 8b 4d f0          	mov    -0x10(%rbp),%rcx
    497b:	48 8b 45 f8          	mov    -0x8(%rbp),%rax
    497f:	ba 3a 00 00 00       	mov    $0x3a,%edx
    4984:	48 89 ce             	mov    %rcx,%rsi
    4987:	48 89 c7             	mov    %rax,%rdi
    498a:	e8 fb fe ff ff       	callq  488a <quotearg_char_mem>
    498f:	c9                   	leaveq 
    4990:	c3                   	retq   

0000000000004991 <quotearg_n_style_colon>:
    4991:	55                   	push   %rbp
    4992:	48 89 e5             	mov    %rsp,%rbp
    4995:	48 81 ec 90 00 00 00 	sub    $0x90,%rsp
    499c:	89 7d bc             	mov    %edi,-0x44(%rbp)
    499f:	89 75 b8             	mov    %esi,-0x48(%rbp)
    49a2:	48 89 55 b0          	mov    %rdx,-0x50(%rbp)
    49a6:	48 8d 85 70 ff ff ff 	lea    -0x90(%rbp),%rax
    49ad:	8b 55 b8             	mov    -0x48(%rbp),%edx
    49b0:	89 d6                	mov    %edx,%esi
    49b2:	48 89 c7             	mov    %rax,%rdi
    49b5:	e8 42 e7 ff ff       	callq  30fc <quoting_options_from_style>
    49ba:	48 8b 85 70 ff ff ff 	mov    -0x90(%rbp),%rax
    49c1:	48 8b 95 78 ff ff ff 	mov    -0x88(%rbp),%rdx
    49c8:	48 89 45 c0          	mov    %rax,-0x40(%rbp)
    49cc:	48 89 55 c8          	mov    %rdx,-0x38(%rbp)
    49d0:	48 8b 45 80          	mov    -0x80(%rbp),%rax
    49d4:	48 8b 55 88          	mov    -0x78(%rbp),%rdx
    49d8:	48 89 45 d0          	mov    %rax,-0x30(%rbp)
    49dc:	48 89 55 d8          	mov    %rdx,-0x28(%rbp)
    49e0:	48 8b 45 90          	mov    -0x70(%rbp),%rax
    49e4:	48 8b 55 98          	mov    -0x68(%rbp),%rdx
    49e8:	48 89 45 e0          	mov    %rax,-0x20(%rbp)
    49ec:	48 89 55 e8          	mov    %rdx,-0x18(%rbp)
    49f0:	48 8b 45 a0          	mov    -0x60(%rbp),%rax
    49f4:	48 89 45 f0          	mov    %rax,-0x10(%rbp)
    49f8:	48 8d 45 c0          	lea    -0x40(%rbp),%rax
    49fc:	ba 01 00 00 00       	mov    $0x1,%edx
    4a01:	be 3a 00 00 00       	mov    $0x3a,%esi
    4a06:	48 89 c7             	mov    %rax,%rdi
    4a09:	e8 ce e5 ff ff       	callq  2fdc <set_char_quoting>
    4a0e:	48 8d 55 c0          	lea    -0x40(%rbp),%rdx
    4a12:	48 8b 75 b0          	mov    -0x50(%rbp),%rsi
    4a16:	8b 45 bc             	mov    -0x44(%rbp),%eax
    4a19:	48 89 d1             	mov    %rdx,%rcx
    4a1c:	48 c7 c2 ff ff ff ff 	mov    $0xffffffffffffffff,%rdx
    4a23:	89 c7                	mov    %eax,%edi
    4a25:	e8 67 fa ff ff       	callq  4491 <quotearg_n_options>
    4a2a:	c9                   	leaveq 
    4a2b:	c3                   	retq   

0000000000004a2c <quotearg_n_custom>:
    4a2c:	55                   	push   %rbp
    4a2d:	48 89 e5             	mov    %rsp,%rbp
    4a30:	48 83 ec 20          	sub    $0x20,%rsp
    4a34:	89 7d fc             	mov    %edi,-0x4(%rbp)
    4a37:	48 89 75 f0          	mov    %rsi,-0x10(%rbp)
    4a3b:	48 89 55 e8          	mov    %rdx,-0x18(%rbp)
    4a3f:	48 89 4d e0          	mov    %rcx,-0x20(%rbp)
    4a43:	48 8b 4d e0          	mov    -0x20(%rbp),%rcx
    4a47:	48 8b 55 e8          	mov    -0x18(%rbp),%rdx
    4a4b:	48 8b 75 f0          	mov    -0x10(%rbp),%rsi
    4a4f:	8b 45 fc             	mov    -0x4(%rbp),%eax
    4a52:	49 c7 c0 ff ff ff ff 	mov    $0xffffffffffffffff,%r8
    4a59:	89 c7                	mov    %eax,%edi
    4a5b:	e8 02 00 00 00       	callq  4a62 <quotearg_n_custom_mem>
    4a60:	c9                   	leaveq 
    4a61:	c3                   	retq   

0000000000004a62 <quotearg_n_custom_mem>:
    4a62:	55                   	push   %rbp
    4a63:	48 89 e5             	mov    %rsp,%rbp
    4a66:	48 83 ec 70          	sub    $0x70,%rsp
    4a6a:	89 7d bc             	mov    %edi,-0x44(%rbp)
    4a6d:	48 89 75 b0          	mov    %rsi,-0x50(%rbp)
    4a71:	48 89 55 a8          	mov    %rdx,-0x58(%rbp)
    4a75:	48 89 4d a0          	mov    %rcx,-0x60(%rbp)
    4a79:	4c 89 45 98          	mov    %r8,-0x68(%rbp)
    4a7d:	48 8b 05 1c 58 00 00 	mov    0x581c(%rip),%rax        # a2a0 <default_quoting_options>
    4a84:	48 8b 15 1d 58 00 00 	mov    0x581d(%rip),%rdx        # a2a8 <default_quoting_options+0x8>
    4a8b:	48 89 45 c0          	mov    %rax,-0x40(%rbp)
    4a8f:	48 89 55 c8          	mov    %rdx,-0x38(%rbp)
    4a93:	48 8b 05 16 58 00 00 	mov    0x5816(%rip),%rax        # a2b0 <default_quoting_options+0x10>
    4a9a:	48 8b 15 17 58 00 00 	mov    0x5817(%rip),%rdx        # a2b8 <default_quoting_options+0x18>
    4aa1:	48 89 45 d0          	mov    %rax,-0x30(%rbp)
    4aa5:	48 89 55 d8          	mov    %rdx,-0x28(%rbp)
    4aa9:	48 8b 05 10 58 00 00 	mov    0x5810(%rip),%rax        # a2c0 <default_quoting_options+0x20>
    4ab0:	48 8b 15 11 58 00 00 	mov    0x5811(%rip),%rdx        # a2c8 <default_quoting_options+0x28>
    4ab7:	48 89 45 e0          	mov    %rax,-0x20(%rbp)
    4abb:	48 89 55 e8          	mov    %rdx,-0x18(%rbp)
    4abf:	48 8b 05 0a 58 00 00 	mov    0x580a(%rip),%rax        # a2d0 <default_quoting_options+0x30>
    4ac6:	48 89 45 f0          	mov    %rax,-0x10(%rbp)
    4aca:	48 8b 55 a8          	mov    -0x58(%rbp),%rdx
    4ace:	48 8b 4d b0          	mov    -0x50(%rbp),%rcx
    4ad2:	48 8d 45 c0          	lea    -0x40(%rbp),%rax
    4ad6:	48 89 ce             	mov    %rcx,%rsi
    4ad9:	48 89 c7             	mov    %rax,%rdi
    4adc:	e8 bd e5 ff ff       	callq  309e <set_custom_quoting>
    4ae1:	48 8d 4d c0          	lea    -0x40(%rbp),%rcx
    4ae5:	48 8b 55 98          	mov    -0x68(%rbp),%rdx
    4ae9:	48 8b 75 a0          	mov    -0x60(%rbp),%rsi
    4aed:	8b 45 bc             	mov    -0x44(%rbp),%eax
    4af0:	89 c7                	mov    %eax,%edi
    4af2:	e8 9a f9 ff ff       	callq  4491 <quotearg_n_options>
    4af7:	c9                   	leaveq 
    4af8:	c3                   	retq   

0000000000004af9 <quotearg_custom>:
    4af9:	55                   	push   %rbp
    4afa:	48 89 e5             	mov    %rsp,%rbp
    4afd:	48 83 ec 20          	sub    $0x20,%rsp
    4b01:	48 89 7d f8          	mov    %rdi,-0x8(%rbp)
    4b05:	48 89 75 f0          	mov    %rsi,-0x10(%rbp)
    4b09:	48 89 55 e8          	mov    %rdx,-0x18(%rbp)
    4b0d:	48 8b 4d e8          	mov    -0x18(%rbp),%rcx
    4b11:	48 8b 55 f0          	mov    -0x10(%rbp),%rdx
    4b15:	48 8b 45 f8          	mov    -0x8(%rbp),%rax
    4b19:	48 89 c6             	mov    %rax,%rsi
    4b1c:	bf 00 00 00 00       	mov    $0x0,%edi
    4b21:	e8 06 ff ff ff       	callq  4a2c <quotearg_n_custom>
    4b26:	c9                   	leaveq 
    4b27:	c3                   	retq   

0000000000004b28 <quotearg_custom_mem>:
    4b28:	55                   	push   %rbp
    4b29:	48 89 e5             	mov    %rsp,%rbp
    4b2c:	48 83 ec 20          	sub    $0x20,%rsp
    4b30:	48 89 7d f8          	mov    %rdi,-0x8(%rbp)
    4b34:	48 89 75 f0          	mov    %rsi,-0x10(%rbp)
    4b38:	48 89 55 e8          	mov    %rdx,-0x18(%rbp)
    4b3c:	48 89 4d e0          	mov    %rcx,-0x20(%rbp)
    4b40:	48 8b 75 e0          	mov    -0x20(%rbp),%rsi
    4b44:	48 8b 4d e8          	mov    -0x18(%rbp),%rcx
    4b48:	48 8b 55 f0          	mov    -0x10(%rbp),%rdx
    4b4c:	48 8b 45 f8          	mov    -0x8(%rbp),%rax
    4b50:	49 89 f0             	mov    %rsi,%r8
    4b53:	48 89 c6             	mov    %rax,%rsi
    4b56:	bf 00 00 00 00       	mov    $0x0,%edi
    4b5b:	e8 02 ff ff ff       	callq  4a62 <quotearg_n_custom_mem>
    4b60:	c9                   	leaveq 
    4b61:	c3                   	retq   

0000000000004b62 <quote_n_mem>:
    4b62:	55                   	push   %rbp
    4b63:	48 89 e5             	mov    %rsp,%rbp
    4b66:	48 83 ec 20          	sub    $0x20,%rsp
    4b6a:	89 7d fc             	mov    %edi,-0x4(%rbp)
    4b6d:	48 89 75 f0          	mov    %rsi,-0x10(%rbp)
    4b71:	48 89 55 e8          	mov    %rdx,-0x18(%rbp)
    4b75:	48 8b 55 e8          	mov    -0x18(%rbp),%rdx
    4b79:	48 8b 75 f0          	mov    -0x10(%rbp),%rsi
    4b7d:	8b 45 fc             	mov    -0x4(%rbp),%eax
    4b80:	48 8d 0d 39 56 00 00 	lea    0x5639(%rip),%rcx        # a1c0 <quote_quoting_options>
    4b87:	89 c7                	mov    %eax,%edi
    4b89:	e8 03 f9 ff ff       	callq  4491 <quotearg_n_options>
    4b8e:	c9                   	leaveq 
    4b8f:	c3                   	retq   

0000000000004b90 <quote_mem>:
    4b90:	55                   	push   %rbp
    4b91:	48 89 e5             	mov    %rsp,%rbp
    4b94:	48 83 ec 10          	sub    $0x10,%rsp
    4b98:	48 89 7d f8          	mov    %rdi,-0x8(%rbp)
    4b9c:	48 89 75 f0          	mov    %rsi,-0x10(%rbp)
    4ba0:	48 8b 55 f0          	mov    -0x10(%rbp),%rdx
    4ba4:	48 8b 45 f8          	mov    -0x8(%rbp),%rax
    4ba8:	48 89 c6             	mov    %rax,%rsi
    4bab:	bf 00 00 00 00       	mov    $0x0,%edi
    4bb0:	e8 ad ff ff ff       	callq  4b62 <quote_n_mem>
    4bb5:	c9                   	leaveq 
    4bb6:	c3                   	retq   

0000000000004bb7 <quote_n>:
    4bb7:	55                   	push   %rbp
    4bb8:	48 89 e5             	mov    %rsp,%rbp
    4bbb:	48 83 ec 10          	sub    $0x10,%rsp
    4bbf:	89 7d fc             	mov    %edi,-0x4(%rbp)
    4bc2:	48 89 75 f0          	mov    %rsi,-0x10(%rbp)
    4bc6:	48 8b 4d f0          	mov    -0x10(%rbp),%rcx
    4bca:	8b 45 fc             	mov    -0x4(%rbp),%eax
    4bcd:	48 c7 c2 ff ff ff ff 	mov    $0xffffffffffffffff,%rdx
    4bd4:	48 89 ce             	mov    %rcx,%rsi
    4bd7:	89 c7                	mov    %eax,%edi
    4bd9:	e8 84 ff ff ff       	callq  4b62 <quote_n_mem>
    4bde:	c9                   	leaveq 
    4bdf:	c3                   	retq   

0000000000004be0 <quote>:
    4be0:	55                   	push   %rbp
    4be1:	48 89 e5             	mov    %rsp,%rbp
    4be4:	48 83 ec 10          	sub    $0x10,%rsp
    4be8:	48 89 7d f8          	mov    %rdi,-0x8(%rbp)
    4bec:	48 8b 45 f8          	mov    -0x8(%rbp),%rax
    4bf0:	48 89 c6             	mov    %rax,%rsi
    4bf3:	bf 00 00 00 00       	mov    $0x0,%edi
    4bf8:	e8 ba ff ff ff       	callq  4bb7 <quote_n>
    4bfd:	c9                   	leaveq 
    4bfe:	c3                   	retq   

0000000000004bff <version_etc_arn>:
    4bff:	55                   	push   %rbp
    4c00:	48 89 e5             	mov    %rsp,%rbp
    4c03:	41 57                	push   %r15
    4c05:	41 56                	push   %r14
    4c07:	41 55                	push   %r13
    4c09:	41 54                	push   %r12
    4c0b:	53                   	push   %rbx
    4c0c:	48 83 ec 58          	sub    $0x58,%rsp
    4c10:	48 89 7d c8          	mov    %rdi,-0x38(%rbp)
    4c14:	48 89 75 c0          	mov    %rsi,-0x40(%rbp)
    4c18:	48 89 55 b8          	mov    %rdx,-0x48(%rbp)
    4c1c:	48 89 4d b0          	mov    %rcx,-0x50(%rbp)
    4c20:	4c 89 45 a8          	mov    %r8,-0x58(%rbp)
    4c24:	4c 89 4d a0          	mov    %r9,-0x60(%rbp)
    4c28:	48 83 7d c0 00       	cmpq   $0x0,-0x40(%rbp)
    4c2d:	74 29                	je     4c58 <version_etc_arn+0x59>
    4c2f:	48 8b 75 b0          	mov    -0x50(%rbp),%rsi
    4c33:	48 8b 4d b8          	mov    -0x48(%rbp),%rcx
    4c37:	48 8b 55 c0          	mov    -0x40(%rbp),%rdx
    4c3b:	48 8b 45 c8          	mov    -0x38(%rbp),%rax
    4c3f:	49 89 f0             	mov    %rsi,%r8
    4c42:	48 8d 35 a7 2c 00 00 	lea    0x2ca7(%rip),%rsi        # 78f0 <quoting_style_vals+0x2f0>
    4c49:	48 89 c7             	mov    %rax,%rdi
    4c4c:	b8 00 00 00 00       	mov    $0x0,%eax
    4c51:	e8 6a d5 ff ff       	callq  21c0 <fprintf@plt>
    4c56:	eb 20                	jmp    4c78 <version_etc_arn+0x79>
    4c58:	48 8b 4d b0          	mov    -0x50(%rbp),%rcx
    4c5c:	48 8b 55 b8          	mov    -0x48(%rbp),%rdx
    4c60:	48 8b 45 c8          	mov    -0x38(%rbp),%rax
    4c64:	48 8d 35 91 2c 00 00 	lea    0x2c91(%rip),%rsi        # 78fc <quoting_style_vals+0x2fc>
    4c6b:	48 89 c7             	mov    %rax,%rdi
    4c6e:	b8 00 00 00 00       	mov    $0x0,%eax
    4c73:	e8 48 d5 ff ff       	callq  21c0 <fprintf@plt>
    4c78:	48 8d 3d 84 2c 00 00 	lea    0x2c84(%rip),%rdi        # 7903 <quoting_style_vals+0x303>
    4c7f:	e8 8c d4 ff ff       	callq  2110 <gettext@plt>
    4c84:	48 89 c2             	mov    %rax,%rdx
    4c87:	48 8b 45 c8          	mov    -0x38(%rbp),%rax
    4c8b:	b9 e7 07 00 00       	mov    $0x7e7,%ecx
    4c90:	48 8d 35 c9 2f 00 00 	lea    0x2fc9(%rip),%rsi        # 7c60 <version_etc_copyright>
    4c97:	48 89 c7             	mov    %rax,%rdi
    4c9a:	b8 00 00 00 00       	mov    $0x0,%eax
    4c9f:	e8 1c d5 ff ff       	callq  21c0 <fprintf@plt>
    4ca4:	48 8b 45 c8          	mov    -0x38(%rbp),%rax
    4ca8:	48 89 c6             	mov    %rax,%rsi
    4cab:	bf 0a 00 00 00       	mov    $0xa,%edi
    4cb0:	e8 fb d4 ff ff       	callq  21b0 <fputc_unlocked@plt>
    4cb5:	48 8d 3d 4c 2c 00 00 	lea    0x2c4c(%rip),%rdi        # 7908 <quoting_style_vals+0x308>
    4cbc:	e8 4f d4 ff ff       	callq  2110 <gettext@plt>
    4cc1:	48 89 c1             	mov    %rax,%rcx
    4cc4:	48 8b 45 c8          	mov    -0x38(%rbp),%rax
    4cc8:	48 8d 15 e9 2c 00 00 	lea    0x2ce9(%rip),%rdx        # 79b8 <quoting_style_vals+0x3b8>
    4ccf:	48 89 ce             	mov    %rcx,%rsi
    4cd2:	48 89 c7             	mov    %rax,%rdi
    4cd5:	b8 00 00 00 00       	mov    $0x0,%eax
    4cda:	e8 e1 d4 ff ff       	callq  21c0 <fprintf@plt>
    4cdf:	48 8b 45 c8          	mov    -0x38(%rbp),%rax
    4ce3:	48 89 c6             	mov    %rax,%rsi
    4ce6:	bf 0a 00 00 00       	mov    $0xa,%edi
    4ceb:	e8 c0 d4 ff ff       	callq  21b0 <fputc_unlocked@plt>
    4cf0:	48 83 7d a0 09       	cmpq   $0x9,-0x60(%rbp)
    4cf5:	0f 87 09 04 00 00    	ja     5104 <version_etc_arn+0x505>
    4cfb:	48 8b 45 a0          	mov    -0x60(%rbp),%rax
    4cff:	48 8d 14 85 00 00 00 	lea    0x0(,%rax,4),%rdx
    4d06:	00 
    4d07:	48 8d 05 56 2e 00 00 	lea    0x2e56(%rip),%rax        # 7b64 <quoting_style_vals+0x564>
    4d0e:	8b 04 02             	mov    (%rdx,%rax,1),%eax
    4d11:	48 98                	cltq   
    4d13:	48 8d 15 4a 2e 00 00 	lea    0x2e4a(%rip),%rdx        # 7b64 <quoting_style_vals+0x564>
    4d1a:	48 01 d0             	add    %rdx,%rax
    4d1d:	ff e0                	jmpq   *%rax
    4d1f:	48 8b 45 a8          	mov    -0x58(%rbp),%rax
    4d23:	48 8b 18             	mov    (%rax),%rbx
    4d26:	48 8d 3d ad 2c 00 00 	lea    0x2cad(%rip),%rdi        # 79da <quoting_style_vals+0x3da>
    4d2d:	e8 de d3 ff ff       	callq  2110 <gettext@plt>
    4d32:	48 89 c1             	mov    %rax,%rcx
    4d35:	48 8b 45 c8          	mov    -0x38(%rbp),%rax
    4d39:	48 89 da             	mov    %rbx,%rdx
    4d3c:	48 89 ce             	mov    %rcx,%rsi
    4d3f:	48 89 c7             	mov    %rax,%rdi
    4d42:	b8 00 00 00 00       	mov    $0x0,%eax
    4d47:	e8 74 d4 ff ff       	callq  21c0 <fprintf@plt>
    4d4c:	e9 67 04 00 00       	jmpq   51b8 <version_etc_arn+0x5b9>
    4d51:	48 8b 45 a8          	mov    -0x58(%rbp),%rax
    4d55:	48 83 c0 08          	add    $0x8,%rax
    4d59:	4c 8b 20             	mov    (%rax),%r12
    4d5c:	48 8b 45 a8          	mov    -0x58(%rbp),%rax
    4d60:	48 8b 18             	mov    (%rax),%rbx
    4d63:	48 8d 3d 80 2c 00 00 	lea    0x2c80(%rip),%rdi        # 79ea <quoting_style_vals+0x3ea>
    4d6a:	e8 a1 d3 ff ff       	callq  2110 <gettext@plt>
    4d6f:	48 89 c6             	mov    %rax,%rsi
    4d72:	48 8b 45 c8          	mov    -0x38(%rbp),%rax
    4d76:	4c 89 e1             	mov    %r12,%rcx
    4d79:	48 89 da             	mov    %rbx,%rdx
    4d7c:	48 89 c7             	mov    %rax,%rdi
    4d7f:	b8 00 00 00 00       	mov    $0x0,%eax
    4d84:	e8 37 d4 ff ff       	callq  21c0 <fprintf@plt>
    4d89:	e9 2a 04 00 00       	jmpq   51b8 <version_etc_arn+0x5b9>
    4d8e:	48 8b 45 a8          	mov    -0x58(%rbp),%rax
    4d92:	48 83 c0 10          	add    $0x10,%rax
    4d96:	4c 8b 28             	mov    (%rax),%r13
    4d99:	48 8b 45 a8          	mov    -0x58(%rbp),%rax
    4d9d:	48 83 c0 08          	add    $0x8,%rax
    4da1:	4c 8b 20             	mov    (%rax),%r12
    4da4:	48 8b 45 a8          	mov    -0x58(%rbp),%rax
    4da8:	48 8b 18             	mov    (%rax),%rbx
    4dab:	48 8d 3d 4f 2c 00 00 	lea    0x2c4f(%rip),%rdi        # 7a01 <quoting_style_vals+0x401>
    4db2:	e8 59 d3 ff ff       	callq  2110 <gettext@plt>
    4db7:	48 89 c6             	mov    %rax,%rsi
    4dba:	48 8b 45 c8          	mov    -0x38(%rbp),%rax
    4dbe:	4d 89 e8             	mov    %r13,%r8
    4dc1:	4c 89 e1             	mov    %r12,%rcx
    4dc4:	48 89 da             	mov    %rbx,%rdx
    4dc7:	48 89 c7             	mov    %rax,%rdi
    4dca:	b8 00 00 00 00       	mov    $0x0,%eax
    4dcf:	e8 ec d3 ff ff       	callq  21c0 <fprintf@plt>
    4dd4:	e9 df 03 00 00       	jmpq   51b8 <version_etc_arn+0x5b9>
    4dd9:	48 8b 45 a8          	mov    -0x58(%rbp),%rax
    4ddd:	48 83 c0 18          	add    $0x18,%rax
    4de1:	4c 8b 30             	mov    (%rax),%r14
    4de4:	48 8b 45 a8          	mov    -0x58(%rbp),%rax
    4de8:	48 83 c0 10          	add    $0x10,%rax
    4dec:	4c 8b 28             	mov    (%rax),%r13
    4def:	48 8b 45 a8          	mov    -0x58(%rbp),%rax
    4df3:	48 83 c0 08          	add    $0x8,%rax
    4df7:	4c 8b 20             	mov    (%rax),%r12
    4dfa:	48 8b 45 a8          	mov    -0x58(%rbp),%rax
    4dfe:	48 8b 18             	mov    (%rax),%rbx
    4e01:	48 8d 3d 18 2c 00 00 	lea    0x2c18(%rip),%rdi        # 7a20 <quoting_style_vals+0x420>
    4e08:	e8 03 d3 ff ff       	callq  2110 <gettext@plt>
    4e0d:	48 89 c6             	mov    %rax,%rsi
    4e10:	48 8b 45 c8          	mov    -0x38(%rbp),%rax
    4e14:	4d 89 f1             	mov    %r14,%r9
    4e17:	4d 89 e8             	mov    %r13,%r8
    4e1a:	4c 89 e1             	mov    %r12,%rcx
    4e1d:	48 89 da             	mov    %rbx,%rdx
    4e20:	48 89 c7             	mov    %rax,%rdi
    4e23:	b8 00 00 00 00       	mov    $0x0,%eax
    4e28:	e8 93 d3 ff ff       	callq  21c0 <fprintf@plt>
    4e2d:	e9 86 03 00 00       	jmpq   51b8 <version_etc_arn+0x5b9>
    4e32:	48 8b 45 a8          	mov    -0x58(%rbp),%rax
    4e36:	48 83 c0 20          	add    $0x20,%rax
    4e3a:	4c 8b 28             	mov    (%rax),%r13
    4e3d:	48 8b 45 a8          	mov    -0x58(%rbp),%rax
    4e41:	48 83 c0 18          	add    $0x18,%rax
    4e45:	4c 8b 38             	mov    (%rax),%r15
    4e48:	48 8b 45 a8          	mov    -0x58(%rbp),%rax
    4e4c:	48 83 c0 10          	add    $0x10,%rax
    4e50:	4c 8b 30             	mov    (%rax),%r14
    4e53:	48 8b 45 a8          	mov    -0x58(%rbp),%rax
    4e57:	48 83 c0 08          	add    $0x8,%rax
    4e5b:	4c 8b 20             	mov    (%rax),%r12
    4e5e:	48 8b 45 a8          	mov    -0x58(%rbp),%rax
    4e62:	48 8b 18             	mov    (%rax),%rbx
    4e65:	48 8d 3d d4 2b 00 00 	lea    0x2bd4(%rip),%rdi        # 7a40 <quoting_style_vals+0x440>
    4e6c:	e8 9f d2 ff ff       	callq  2110 <gettext@plt>
    4e71:	48 89 c6             	mov    %rax,%rsi
    4e74:	48 8b 45 c8          	mov    -0x38(%rbp),%rax
    4e78:	48 83 ec 08          	sub    $0x8,%rsp
    4e7c:	41 55                	push   %r13
    4e7e:	4d 89 f9             	mov    %r15,%r9
    4e81:	4d 89 f0             	mov    %r14,%r8
    4e84:	4c 89 e1             	mov    %r12,%rcx
    4e87:	48 89 da             	mov    %rbx,%rdx
    4e8a:	48 89 c7             	mov    %rax,%rdi
    4e8d:	b8 00 00 00 00       	mov    $0x0,%eax
    4e92:	e8 29 d3 ff ff       	callq  21c0 <fprintf@plt>
    4e97:	48 83 c4 10          	add    $0x10,%rsp
    4e9b:	e9 18 03 00 00       	jmpq   51b8 <version_etc_arn+0x5b9>
    4ea0:	48 8b 45 a8          	mov    -0x58(%rbp),%rax
    4ea4:	48 83 c0 28          	add    $0x28,%rax
    4ea8:	4c 8b 30             	mov    (%rax),%r14
    4eab:	48 8b 45 a8          	mov    -0x58(%rbp),%rax
    4eaf:	48 83 c0 20          	add    $0x20,%rax
    4eb3:	4c 8b 28             	mov    (%rax),%r13
    4eb6:	48 8b 45 a8          	mov    -0x58(%rbp),%rax
    4eba:	48 83 c0 18          	add    $0x18,%rax
    4ebe:	48 8b 00             	mov    (%rax),%rax
    4ec1:	48 89 45 98          	mov    %rax,-0x68(%rbp)
    4ec5:	48 8b 45 a8          	mov    -0x58(%rbp),%rax
    4ec9:	48 83 c0 10          	add    $0x10,%rax
    4ecd:	4c 8b 38             	mov    (%rax),%r15
    4ed0:	48 8b 45 a8          	mov    -0x58(%rbp),%rax
    4ed4:	48 83 c0 08          	add    $0x8,%rax
    4ed8:	4c 8b 20             	mov    (%rax),%r12
    4edb:	48 8b 45 a8          	mov    -0x58(%rbp),%rax
    4edf:	48 8b 18             	mov    (%rax),%rbx
    4ee2:	48 8d 3d 7f 2b 00 00 	lea    0x2b7f(%rip),%rdi        # 7a68 <quoting_style_vals+0x468>
    4ee9:	e8 22 d2 ff ff       	callq  2110 <gettext@plt>
    4eee:	48 89 c6             	mov    %rax,%rsi
    4ef1:	48 8b 45 c8          	mov    -0x38(%rbp),%rax
    4ef5:	41 56                	push   %r14
    4ef7:	41 55                	push   %r13
    4ef9:	4c 8b 4d 98          	mov    -0x68(%rbp),%r9
    4efd:	4d 89 f8             	mov    %r15,%r8
    4f00:	4c 89 e1             	mov    %r12,%rcx
    4f03:	48 89 da             	mov    %rbx,%rdx
    4f06:	48 89 c7             	mov    %rax,%rdi
    4f09:	b8 00 00 00 00       	mov    $0x0,%eax
    4f0e:	e8 ad d2 ff ff       	callq  21c0 <fprintf@plt>
    4f13:	48 83 c4 10          	add    $0x10,%rsp
    4f17:	e9 9c 02 00 00       	jmpq   51b8 <version_etc_arn+0x5b9>
    4f1c:	48 8b 45 a8          	mov    -0x58(%rbp),%rax
    4f20:	48 83 c0 30          	add    $0x30,%rax
    4f24:	4c 8b 38             	mov    (%rax),%r15
    4f27:	48 8b 45 a8          	mov    -0x58(%rbp),%rax
    4f2b:	48 83 c0 28          	add    $0x28,%rax
    4f2f:	4c 8b 30             	mov    (%rax),%r14
    4f32:	48 8b 45 a8          	mov    -0x58(%rbp),%rax
    4f36:	48 83 c0 20          	add    $0x20,%rax
    4f3a:	4c 8b 28             	mov    (%rax),%r13
    4f3d:	48 8b 45 a8          	mov    -0x58(%rbp),%rax
    4f41:	48 83 c0 18          	add    $0x18,%rax
    4f45:	48 8b 00             	mov    (%rax),%rax
    4f48:	48 89 45 98          	mov    %rax,-0x68(%rbp)
    4f4c:	48 8b 45 a8          	mov    -0x58(%rbp),%rax
    4f50:	48 83 c0 10          	add    $0x10,%rax
    4f54:	48 8b 18             	mov    (%rax),%rbx
    4f57:	48 89 5d 90          	mov    %rbx,-0x70(%rbp)
    4f5b:	48 8b 45 a8          	mov    -0x58(%rbp),%rax
    4f5f:	48 83 c0 08          	add    $0x8,%rax
    4f63:	4c 8b 20             	mov    (%rax),%r12
    4f66:	48 8b 45 a8          	mov    -0x58(%rbp),%rax
    4f6a:	48 8b 18             	mov    (%rax),%rbx
    4f6d:	48 8d 3d 1c 2b 00 00 	lea    0x2b1c(%rip),%rdi        # 7a90 <quoting_style_vals+0x490>
    4f74:	e8 97 d1 ff ff       	callq  2110 <gettext@plt>
    4f79:	48 89 c6             	mov    %rax,%rsi
    4f7c:	48 8b 45 c8          	mov    -0x38(%rbp),%rax
    4f80:	48 83 ec 08          	sub    $0x8,%rsp
    4f84:	41 57                	push   %r15
    4f86:	41 56                	push   %r14
    4f88:	41 55                	push   %r13
    4f8a:	4c 8b 4d 98          	mov    -0x68(%rbp),%r9
    4f8e:	4c 8b 45 90          	mov    -0x70(%rbp),%r8
    4f92:	4c 89 e1             	mov    %r12,%rcx
    4f95:	48 89 da             	mov    %rbx,%rdx
    4f98:	48 89 c7             	mov    %rax,%rdi
    4f9b:	b8 00 00 00 00       	mov    $0x0,%eax
    4fa0:	e8 1b d2 ff ff       	callq  21c0 <fprintf@plt>
    4fa5:	48 83 c4 20          	add    $0x20,%rsp
    4fa9:	e9 0a 02 00 00       	jmpq   51b8 <version_etc_arn+0x5b9>
    4fae:	48 8b 45 a8          	mov    -0x58(%rbp),%rax
    4fb2:	48 83 c0 38          	add    $0x38,%rax
    4fb6:	48 8b 00             	mov    (%rax),%rax
    4fb9:	48 89 45 98          	mov    %rax,-0x68(%rbp)
    4fbd:	48 8b 45 a8          	mov    -0x58(%rbp),%rax
    4fc1:	48 83 c0 30          	add    $0x30,%rax
    4fc5:	4c 8b 38             	mov    (%rax),%r15
    4fc8:	48 8b 45 a8          	mov    -0x58(%rbp),%rax
    4fcc:	48 83 c0 28          	add    $0x28,%rax
    4fd0:	4c 8b 30             	mov    (%rax),%r14
    4fd3:	48 8b 45 a8          	mov    -0x58(%rbp),%rax
    4fd7:	48 83 c0 20          	add    $0x20,%rax
    4fdb:	4c 8b 28             	mov    (%rax),%r13
    4fde:	48 8b 45 a8          	mov    -0x58(%rbp),%rax
    4fe2:	48 83 c0 18          	add    $0x18,%rax
    4fe6:	48 8b 08             	mov    (%rax),%rcx
    4fe9:	48 89 4d 90          	mov    %rcx,-0x70(%rbp)
    4fed:	48 8b 45 a8          	mov    -0x58(%rbp),%rax
    4ff1:	48 83 c0 10          	add    $0x10,%rax
    4ff5:	48 8b 18             	mov    (%rax),%rbx
    4ff8:	48 89 5d 88          	mov    %rbx,-0x78(%rbp)
    4ffc:	48 8b 45 a8          	mov    -0x58(%rbp),%rax
    5000:	48 83 c0 08          	add    $0x8,%rax
    5004:	4c 8b 20             	mov    (%rax),%r12
    5007:	48 8b 45 a8          	mov    -0x58(%rbp),%rax
    500b:	48 8b 18             	mov    (%rax),%rbx
    500e:	48 8d 3d ab 2a 00 00 	lea    0x2aab(%rip),%rdi        # 7ac0 <quoting_style_vals+0x4c0>
    5015:	e8 f6 d0 ff ff       	callq  2110 <gettext@plt>
    501a:	48 89 c6             	mov    %rax,%rsi
    501d:	48 8b 45 c8          	mov    -0x38(%rbp),%rax
    5021:	ff 75 98             	pushq  -0x68(%rbp)
    5024:	41 57                	push   %r15
    5026:	41 56                	push   %r14
    5028:	41 55                	push   %r13
    502a:	4c 8b 4d 90          	mov    -0x70(%rbp),%r9
    502e:	4c 8b 45 88          	mov    -0x78(%rbp),%r8
    5032:	4c 89 e1             	mov    %r12,%rcx
    5035:	48 89 da             	mov    %rbx,%rdx
    5038:	48 89 c7             	mov    %rax,%rdi
    503b:	b8 00 00 00 00       	mov    $0x0,%eax
    5040:	e8 7b d1 ff ff       	callq  21c0 <fprintf@plt>
    5045:	48 83 c4 20          	add    $0x20,%rsp
    5049:	e9 6a 01 00 00       	jmpq   51b8 <version_etc_arn+0x5b9>
    504e:	48 8b 45 a8          	mov    -0x58(%rbp),%rax
    5052:	48 83 c0 40          	add    $0x40,%rax
    5056:	48 8b 00             	mov    (%rax),%rax
    5059:	48 89 45 98          	mov    %rax,-0x68(%rbp)
    505d:	48 8b 45 a8          	mov    -0x58(%rbp),%rax
    5061:	48 83 c0 38          	add    $0x38,%rax
    5065:	48 8b 08             	mov    (%rax),%rcx
    5068:	48 89 4d 90          	mov    %rcx,-0x70(%rbp)
    506c:	48 8b 45 a8          	mov    -0x58(%rbp),%rax
    5070:	48 83 c0 30          	add    $0x30,%rax
    5074:	4c 8b 38             	mov    (%rax),%r15
    5077:	48 8b 45 a8          	mov    -0x58(%rbp),%rax
    507b:	48 83 c0 28          	add    $0x28,%rax
    507f:	4c 8b 30             	mov    (%rax),%r14
    5082:	48 8b 45 a8          	mov    -0x58(%rbp),%rax
    5086:	48 83 c0 20          	add    $0x20,%rax
    508a:	4c 8b 28             	mov    (%rax),%r13
    508d:	48 8b 45 a8          	mov    -0x58(%rbp),%rax
    5091:	48 83 c0 18          	add    $0x18,%rax
    5095:	48 8b 18             	mov    (%rax),%rbx
    5098:	48 89 5d 88          	mov    %rbx,-0x78(%rbp)
    509c:	48 8b 45 a8          	mov    -0x58(%rbp),%rax
    50a0:	48 83 c0 10          	add    $0x10,%rax
    50a4:	48 8b 10             	mov    (%rax),%rdx
    50a7:	48 89 55 80          	mov    %rdx,-0x80(%rbp)
    50ab:	48 8b 45 a8          	mov    -0x58(%rbp),%rax
    50af:	48 83 c0 08          	add    $0x8,%rax
    50b3:	4c 8b 20             	mov    (%rax),%r12
    50b6:	48 8b 45 a8          	mov    -0x58(%rbp),%rax
    50ba:	48 8b 18             	mov    (%rax),%rbx
    50bd:	48 8d 3d 2c 2a 00 00 	lea    0x2a2c(%rip),%rdi        # 7af0 <quoting_style_vals+0x4f0>
    50c4:	e8 47 d0 ff ff       	callq  2110 <gettext@plt>
    50c9:	48 89 c6             	mov    %rax,%rsi
    50cc:	48 8b 45 c8          	mov    -0x38(%rbp),%rax
    50d0:	48 83 ec 08          	sub    $0x8,%rsp
    50d4:	ff 75 98             	pushq  -0x68(%rbp)
    50d7:	ff 75 90             	pushq  -0x70(%rbp)
    50da:	41 57                	push   %r15
    50dc:	41 56                	push   %r14
    50de:	41 55                	push   %r13
    50e0:	4c 8b 4d 88          	mov    -0x78(%rbp),%r9
    50e4:	4c 8b 45 80          	mov    -0x80(%rbp),%r8
    50e8:	4c 89 e1             	mov    %r12,%rcx
    50eb:	48 89 da             	mov    %rbx,%rdx
    50ee:	48 89 c7             	mov    %rax,%rdi
    50f1:	b8 00 00 00 00       	mov    $0x0,%eax
    50f6:	e8 c5 d0 ff ff       	callq  21c0 <fprintf@plt>
    50fb:	48 83 c4 30          	add    $0x30,%rsp
    50ff:	e9 b4 00 00 00       	jmpq   51b8 <version_etc_arn+0x5b9>
    5104:	48 8b 45 a8          	mov    -0x58(%rbp),%rax
    5108:	48 83 c0 40          	add    $0x40,%rax
    510c:	48 8b 00             	mov    (%rax),%rax
    510f:	48 89 45 98          	mov    %rax,-0x68(%rbp)
    5113:	48 8b 45 a8          	mov    -0x58(%rbp),%rax
    5117:	48 83 c0 38          	add    $0x38,%rax
    511b:	48 8b 08             	mov    (%rax),%rcx
    511e:	48 89 4d 90          	mov    %rcx,-0x70(%rbp)
    5122:	48 8b 45 a8          	mov    -0x58(%rbp),%rax
    5126:	48 83 c0 30          	add    $0x30,%rax
    512a:	4c 8b 38             	mov    (%rax),%r15
    512d:	48 8b 45 a8          	mov    -0x58(%rbp),%rax
    5131:	48 83 c0 28          	add    $0x28,%rax
    5135:	4c 8b 30             	mov    (%rax),%r14
    5138:	48 8b 45 a8          	mov    -0x58(%rbp),%rax
    513c:	48 83 c0 20          	add    $0x20,%rax
    5140:	4c 8b 28             	mov    (%rax),%r13
    5143:	48 8b 45 a8          	mov    -0x58(%rbp),%rax
    5147:	48 83 c0 18          	add    $0x18,%rax
    514b:	48 8b 18             	mov    (%rax),%rbx
    514e:	48 89 5d 88          	mov    %rbx,-0x78(%rbp)
    5152:	48 8b 45 a8          	mov    -0x58(%rbp),%rax
    5156:	48 83 c0 10          	add    $0x10,%rax
    515a:	48 8b 10             	mov    (%rax),%rdx
    515d:	48 89 55 80          	mov    %rdx,-0x80(%rbp)
    5161:	48 8b 45 a8          	mov    -0x58(%rbp),%rax
    5165:	48 83 c0 08          	add    $0x8,%rax
    5169:	4c 8b 20             	mov    (%rax),%r12
    516c:	48 8b 45 a8          	mov    -0x58(%rbp),%rax
    5170:	48 8b 18             	mov    (%rax),%rbx
    5173:	48 8d 3d ae 29 00 00 	lea    0x29ae(%rip),%rdi        # 7b28 <quoting_style_vals+0x528>
    517a:	e8 91 cf ff ff       	callq  2110 <gettext@plt>
    517f:	48 89 c6             	mov    %rax,%rsi
    5182:	48 8b 45 c8          	mov    -0x38(%rbp),%rax
    5186:	48 83 ec 08          	sub    $0x8,%rsp
    518a:	ff 75 98             	pushq  -0x68(%rbp)
    518d:	ff 75 90             	pushq  -0x70(%rbp)
    5190:	41 57                	push   %r15
    5192:	41 56                	push   %r14
    5194:	41 55                	push   %r13
    5196:	4c 8b 4d 88          	mov    -0x78(%rbp),%r9
    519a:	4c 8b 45 80          	mov    -0x80(%rbp),%r8
    519e:	4c 89 e1             	mov    %r12,%rcx
    51a1:	48 89 da             	mov    %rbx,%rdx
    51a4:	48 89 c7             	mov    %rax,%rdi
    51a7:	b8 00 00 00 00       	mov    $0x0,%eax
    51ac:	e8 0f d0 ff ff       	callq  21c0 <fprintf@plt>
    51b1:	48 83 c4 30          	add    $0x30,%rsp
    51b5:	eb 01                	jmp    51b8 <version_etc_arn+0x5b9>
    51b7:	90                   	nop
    51b8:	90                   	nop
    51b9:	48 8d 65 d8          	lea    -0x28(%rbp),%rsp
    51bd:	5b                   	pop    %rbx
    51be:	41 5c                	pop    %r12
    51c0:	41 5d                	pop    %r13
    51c2:	41 5e                	pop    %r14
    51c4:	41 5f                	pop    %r15
    51c6:	5d                   	pop    %rbp
    51c7:	c3                   	retq   

00000000000051c8 <version_etc_ar>:
    51c8:	55                   	push   %rbp
    51c9:	48 89 e5             	mov    %rsp,%rbp
    51cc:	48 83 ec 40          	sub    $0x40,%rsp
    51d0:	48 89 7d e8          	mov    %rdi,-0x18(%rbp)
    51d4:	48 89 75 e0          	mov    %rsi,-0x20(%rbp)
    51d8:	48 89 55 d8          	mov    %rdx,-0x28(%rbp)
    51dc:	48 89 4d d0          	mov    %rcx,-0x30(%rbp)
    51e0:	4c 89 45 c8          	mov    %r8,-0x38(%rbp)
    51e4:	48 c7 45 f8 00 00 00 	movq   $0x0,-0x8(%rbp)
    51eb:	00 
    51ec:	eb 05                	jmp    51f3 <version_etc_ar+0x2b>
    51ee:	48 83 45 f8 01       	addq   $0x1,-0x8(%rbp)
    51f3:	48 8b 45 f8          	mov    -0x8(%rbp),%rax
    51f7:	48 8d 14 c5 00 00 00 	lea    0x0(,%rax,8),%rdx
    51fe:	00 
    51ff:	48 8b 45 c8          	mov    -0x38(%rbp),%rax
    5203:	48 01 d0             	add    %rdx,%rax
    5206:	48 8b 00             	mov    (%rax),%rax
    5209:	48 85 c0             	test   %rax,%rax
    520c:	75 e0                	jne    51ee <version_etc_ar+0x26>
    520e:	4c 8b 45 f8          	mov    -0x8(%rbp),%r8
    5212:	48 8b 7d c8          	mov    -0x38(%rbp),%rdi
    5216:	48 8b 4d d0          	mov    -0x30(%rbp),%rcx
    521a:	48 8b 55 d8          	mov    -0x28(%rbp),%rdx
    521e:	48 8b 75 e0          	mov    -0x20(%rbp),%rsi
    5222:	48 8b 45 e8          	mov    -0x18(%rbp),%rax
    5226:	4d 89 c1             	mov    %r8,%r9
    5229:	49 89 f8             	mov    %rdi,%r8
    522c:	48 89 c7             	mov    %rax,%rdi
    522f:	e8 cb f9 ff ff       	callq  4bff <version_etc_arn>
    5234:	90                   	nop
    5235:	c9                   	leaveq 
    5236:	c3                   	retq   

0000000000005237 <version_etc_va>:
    5237:	55                   	push   %rbp
    5238:	48 89 e5             	mov    %rsp,%rbp
    523b:	48 81 ec 90 00 00 00 	sub    $0x90,%rsp
    5242:	48 89 7d 98          	mov    %rdi,-0x68(%rbp)
    5246:	48 89 75 90          	mov    %rsi,-0x70(%rbp)
    524a:	48 89 55 88          	mov    %rdx,-0x78(%rbp)
    524e:	48 89 4d 80          	mov    %rcx,-0x80(%rbp)
    5252:	4c 89 85 78 ff ff ff 	mov    %r8,-0x88(%rbp)
    5259:	48 c7 45 f8 00 00 00 	movq   $0x0,-0x8(%rbp)
    5260:	00 
    5261:	eb 05                	jmp    5268 <version_etc_va+0x31>
    5263:	48 83 45 f8 01       	addq   $0x1,-0x8(%rbp)
    5268:	48 83 7d f8 09       	cmpq   $0x9,-0x8(%rbp)
    526d:	77 72                	ja     52e1 <version_etc_va+0xaa>
    526f:	48 8b 85 78 ff ff ff 	mov    -0x88(%rbp),%rax
    5276:	8b 00                	mov    (%rax),%eax
    5278:	83 f8 2f             	cmp    $0x2f,%eax
    527b:	77 30                	ja     52ad <version_etc_va+0x76>
    527d:	48 8b 85 78 ff ff ff 	mov    -0x88(%rbp),%rax
    5284:	48 8b 50 10          	mov    0x10(%rax),%rdx
    5288:	48 8b 85 78 ff ff ff 	mov    -0x88(%rbp),%rax
    528f:	8b 00                	mov    (%rax),%eax
    5291:	89 c0                	mov    %eax,%eax
    5293:	48 01 d0             	add    %rdx,%rax
    5296:	48 8b 95 78 ff ff ff 	mov    -0x88(%rbp),%rdx
    529d:	8b 12                	mov    (%rdx),%edx
    529f:	8d 4a 08             	lea    0x8(%rdx),%ecx
    52a2:	48 8b 95 78 ff ff ff 	mov    -0x88(%rbp),%rdx
    52a9:	89 0a                	mov    %ecx,(%rdx)
    52ab:	eb 1a                	jmp    52c7 <version_etc_va+0x90>
    52ad:	48 8b 85 78 ff ff ff 	mov    -0x88(%rbp),%rax
    52b4:	48 8b 40 08          	mov    0x8(%rax),%rax
    52b8:	48 8d 48 08          	lea    0x8(%rax),%rcx
    52bc:	48 8b 95 78 ff ff ff 	mov    -0x88(%rbp),%rdx
    52c3:	48 89 4a 08          	mov    %rcx,0x8(%rdx)
    52c7:	48 8b 10             	mov    (%rax),%rdx
    52ca:	48 8b 45 f8          	mov    -0x8(%rbp),%rax
    52ce:	48 89 54 c5 a0       	mov    %rdx,-0x60(%rbp,%rax,8)
    52d3:	48 8b 45 f8          	mov    -0x8(%rbp),%rax
    52d7:	48 8b 44 c5 a0       	mov    -0x60(%rbp,%rax,8),%rax
    52dc:	48 85 c0             	test   %rax,%rax
    52df:	75 82                	jne    5263 <version_etc_va+0x2c>
    52e1:	4c 8b 45 f8          	mov    -0x8(%rbp),%r8
    52e5:	48 8d 7d a0          	lea    -0x60(%rbp),%rdi
    52e9:	48 8b 4d 80          	mov    -0x80(%rbp),%rcx
    52ed:	48 8b 55 88          	mov    -0x78(%rbp),%rdx
    52f1:	48 8b 75 90          	mov    -0x70(%rbp),%rsi
    52f5:	48 8b 45 98          	mov    -0x68(%rbp),%rax
    52f9:	4d 89 c1             	mov    %r8,%r9
    52fc:	49 89 f8             	mov    %rdi,%r8
    52ff:	48 89 c7             	mov    %rax,%rdi
    5302:	e8 f8 f8 ff ff       	callq  4bff <version_etc_arn>
    5307:	90                   	nop
    5308:	c9                   	leaveq 
    5309:	c3                   	retq   

000000000000530a <version_etc>:
    530a:	55                   	push   %rbp
    530b:	48 89 e5             	mov    %rsp,%rbp
    530e:	48 81 ec f0 00 00 00 	sub    $0xf0,%rsp
    5315:	48 89 bd 28 ff ff ff 	mov    %rdi,-0xd8(%rbp)
    531c:	48 89 b5 20 ff ff ff 	mov    %rsi,-0xe0(%rbp)
    5323:	48 89 95 18 ff ff ff 	mov    %rdx,-0xe8(%rbp)
    532a:	48 89 8d 10 ff ff ff 	mov    %rcx,-0xf0(%rbp)
    5331:	4c 89 85 70 ff ff ff 	mov    %r8,-0x90(%rbp)
    5338:	4c 89 8d 78 ff ff ff 	mov    %r9,-0x88(%rbp)
    533f:	84 c0                	test   %al,%al
    5341:	74 20                	je     5363 <version_etc+0x59>
    5343:	0f 29 45 80          	movaps %xmm0,-0x80(%rbp)
    5347:	0f 29 4d 90          	movaps %xmm1,-0x70(%rbp)
    534b:	0f 29 55 a0          	movaps %xmm2,-0x60(%rbp)
    534f:	0f 29 5d b0          	movaps %xmm3,-0x50(%rbp)
    5353:	0f 29 65 c0          	movaps %xmm4,-0x40(%rbp)
    5357:	0f 29 6d d0          	movaps %xmm5,-0x30(%rbp)
    535b:	0f 29 75 e0          	movaps %xmm6,-0x20(%rbp)
    535f:	0f 29 7d f0          	movaps %xmm7,-0x10(%rbp)
    5363:	c7 85 38 ff ff ff 20 	movl   $0x20,-0xc8(%rbp)
    536a:	00 00 00 
    536d:	c7 85 3c ff ff ff 30 	movl   $0x30,-0xc4(%rbp)
    5374:	00 00 00 
    5377:	48 8d 45 10          	lea    0x10(%rbp),%rax
    537b:	48 89 85 40 ff ff ff 	mov    %rax,-0xc0(%rbp)
    5382:	48 8d 85 50 ff ff ff 	lea    -0xb0(%rbp),%rax
    5389:	48 89 85 48 ff ff ff 	mov    %rax,-0xb8(%rbp)
    5390:	48 8d bd 38 ff ff ff 	lea    -0xc8(%rbp),%rdi
    5397:	48 8b 8d 10 ff ff ff 	mov    -0xf0(%rbp),%rcx
    539e:	48 8b 95 18 ff ff ff 	mov    -0xe8(%rbp),%rdx
    53a5:	48 8b b5 20 ff ff ff 	mov    -0xe0(%rbp),%rsi
    53ac:	48 8b 85 28 ff ff ff 	mov    -0xd8(%rbp),%rax
    53b3:	49 89 f8             	mov    %rdi,%r8
    53b6:	48 89 c7             	mov    %rax,%rdi
    53b9:	e8 79 fe ff ff       	callq  5237 <version_etc_va>
    53be:	90                   	nop
    53bf:	c9                   	leaveq 
    53c0:	c3                   	retq   

00000000000053c1 <emit_bug_reporting_address>:
    53c1:	55                   	push   %rbp
    53c2:	48 89 e5             	mov    %rsp,%rbp
    53c5:	48 8b 05 5c 4e 00 00 	mov    0x4e5c(%rip),%rax        # a228 <stdout@@GLIBC_2.2.5>
    53cc:	48 89 c6             	mov    %rax,%rsi
    53cf:	bf 0a 00 00 00       	mov    $0xa,%edi
    53d4:	e8 d7 cd ff ff       	callq  21b0 <fputc_unlocked@plt>
    53d9:	48 8d 3d ac 27 00 00 	lea    0x27ac(%rip),%rdi        # 7b8c <quoting_style_vals+0x58c>
    53e0:	e8 2b cd ff ff       	callq  2110 <gettext@plt>
    53e5:	48 8d 35 b4 27 00 00 	lea    0x27b4(%rip),%rsi        # 7ba0 <quoting_style_vals+0x5a0>
    53ec:	48 89 c7             	mov    %rax,%rdi
    53ef:	b8 00 00 00 00       	mov    $0x0,%eax
    53f4:	e8 27 cd ff ff       	callq  2120 <printf@plt>
    53f9:	48 8d 3d b6 27 00 00 	lea    0x27b6(%rip),%rdi        # 7bb6 <quoting_style_vals+0x5b6>
    5400:	e8 0b cd ff ff       	callq  2110 <gettext@plt>
    5405:	48 8d 15 c4 27 00 00 	lea    0x27c4(%rip),%rdx        # 7bd0 <quoting_style_vals+0x5d0>
    540c:	48 8d 35 e5 27 00 00 	lea    0x27e5(%rip),%rsi        # 7bf8 <quoting_style_vals+0x5f8>
    5413:	48 89 c7             	mov    %rax,%rdi
    5416:	b8 00 00 00 00       	mov    $0x0,%eax
    541b:	e8 00 cd ff ff       	callq  2120 <printf@plt>
    5420:	48 8d 3d e1 27 00 00 	lea    0x27e1(%rip),%rdi        # 7c08 <quoting_style_vals+0x608>
    5427:	e8 e4 cc ff ff       	callq  2110 <gettext@plt>
    542c:	48 8d 35 fc 27 00 00 	lea    0x27fc(%rip),%rsi        # 7c2f <quoting_style_vals+0x62f>
    5433:	48 89 c7             	mov    %rax,%rdi
    5436:	b8 00 00 00 00       	mov    $0x0,%eax
    543b:	e8 e0 cc ff ff       	callq  2120 <printf@plt>
    5440:	90                   	nop
    5441:	5d                   	pop    %rbp
    5442:	c3                   	retq   

0000000000005443 <xnrealloc>:
    5443:	55                   	push   %rbp
    5444:	48 89 e5             	mov    %rsp,%rbp
    5447:	48 83 ec 20          	sub    $0x20,%rsp
    544b:	48 89 7d f8          	mov    %rdi,-0x8(%rbp)
    544f:	48 89 75 f0          	mov    %rsi,-0x10(%rbp)
    5453:	48 89 55 e8          	mov    %rdx,-0x18(%rbp)
    5457:	48 8b 55 e8          	mov    -0x18(%rbp),%rdx
    545b:	48 8b 4d f0          	mov    -0x10(%rbp),%rcx
    545f:	48 8b 45 f8          	mov    -0x8(%rbp),%rax
    5463:	48 89 ce             	mov    %rcx,%rsi
    5466:	48 89 c7             	mov    %rax,%rdi
    5469:	e8 f2 00 00 00       	callq  5560 <xreallocarray>
    546e:	c9                   	leaveq 
    546f:	c3                   	retq   

0000000000005470 <nonnull>:
    5470:	55                   	push   %rbp
    5471:	48 89 e5             	mov    %rsp,%rbp
    5474:	48 83 ec 10          	sub    $0x10,%rsp
    5478:	48 89 7d f8          	mov    %rdi,-0x8(%rbp)
    547c:	48 83 7d f8 00       	cmpq   $0x0,-0x8(%rbp)
    5481:	75 05                	jne    5488 <nonnull+0x18>
    5483:	e8 a8 05 00 00       	callq  5a30 <xalloc_die>
    5488:	48 8b 45 f8          	mov    -0x8(%rbp),%rax
    548c:	c9                   	leaveq 
    548d:	c3                   	retq   

000000000000548e <xmalloc>:
    548e:	55                   	push   %rbp
    548f:	48 89 e5             	mov    %rsp,%rbp
    5492:	48 83 ec 10          	sub    $0x10,%rsp
    5496:	48 89 7d f8          	mov    %rdi,-0x8(%rbp)
    549a:	48 8b 45 f8          	mov    -0x8(%rbp),%rax
    549e:	48 89 c7             	mov    %rax,%rdi
    54a1:	e8 5a cd ff ff       	callq  2200 <malloc@plt>
    54a6:	48 89 c7             	mov    %rax,%rdi
    54a9:	e8 c2 ff ff ff       	callq  5470 <nonnull>
    54ae:	c9                   	leaveq 
    54af:	c3                   	retq   

00000000000054b0 <ximalloc>:
    54b0:	55                   	push   %rbp
    54b1:	48 89 e5             	mov    %rsp,%rbp
    54b4:	48 83 ec 10          	sub    $0x10,%rsp
    54b8:	48 89 7d f8          	mov    %rdi,-0x8(%rbp)
    54bc:	48 8b 45 f8          	mov    -0x8(%rbp),%rax
    54c0:	48 89 c7             	mov    %rax,%rdi
    54c3:	e8 72 09 00 00       	callq  5e3a <imalloc>
    54c8:	48 89 c7             	mov    %rax,%rdi
    54cb:	e8 a0 ff ff ff       	callq  5470 <nonnull>
    54d0:	c9                   	leaveq 
    54d1:	c3                   	retq   

00000000000054d2 <xcharalloc>:
    54d2:	55                   	push   %rbp
    54d3:	48 89 e5             	mov    %rsp,%rbp
    54d6:	48 83 ec 10          	sub    $0x10,%rsp
    54da:	48 89 7d f8          	mov    %rdi,-0x8(%rbp)
    54de:	48 8b 45 f8          	mov    -0x8(%rbp),%rax
    54e2:	48 89 c7             	mov    %rax,%rdi
    54e5:	e8 a4 ff ff ff       	callq  548e <xmalloc>
    54ea:	c9                   	leaveq 
    54eb:	c3                   	retq   

00000000000054ec <xrealloc>:
    54ec:	55                   	push   %rbp
    54ed:	48 89 e5             	mov    %rsp,%rbp
    54f0:	48 83 ec 20          	sub    $0x20,%rsp
    54f4:	48 89 7d e8          	mov    %rdi,-0x18(%rbp)
    54f8:	48 89 75 e0          	mov    %rsi,-0x20(%rbp)
    54fc:	48 8b 55 e0          	mov    -0x20(%rbp),%rdx
    5500:	48 8b 45 e8          	mov    -0x18(%rbp),%rax
    5504:	48 89 d6             	mov    %rdx,%rsi
    5507:	48 89 c7             	mov    %rax,%rdi
    550a:	e8 31 cd ff ff       	callq  2240 <realloc@plt>
    550f:	48 89 45 f8          	mov    %rax,-0x8(%rbp)
    5513:	48 83 7d f8 00       	cmpq   $0x0,-0x8(%rbp)
    5518:	75 13                	jne    552d <xrealloc+0x41>
    551a:	48 83 7d e8 00       	cmpq   $0x0,-0x18(%rbp)
    551f:	74 07                	je     5528 <xrealloc+0x3c>
    5521:	48 83 7d e0 00       	cmpq   $0x0,-0x20(%rbp)
    5526:	74 05                	je     552d <xrealloc+0x41>
    5528:	e8 03 05 00 00       	callq  5a30 <xalloc_die>
    552d:	48 8b 45 f8          	mov    -0x8(%rbp),%rax
    5531:	c9                   	leaveq 
    5532:	c3                   	retq   

0000000000005533 <xirealloc>:
    5533:	55                   	push   %rbp
    5534:	48 89 e5             	mov    %rsp,%rbp
    5537:	48 83 ec 10          	sub    $0x10,%rsp
    553b:	48 89 7d f8          	mov    %rdi,-0x8(%rbp)
    553f:	48 89 75 f0          	mov    %rsi,-0x10(%rbp)
    5543:	48 8b 55 f0          	mov    -0x10(%rbp),%rdx
    5547:	48 8b 45 f8          	mov    -0x8(%rbp),%rax
    554b:	48 89 d6             	mov    %rdx,%rsi
    554e:	48 89 c7             	mov    %rax,%rdi
    5551:	e8 fe 08 00 00       	callq  5e54 <irealloc>
    5556:	48 89 c7             	mov    %rax,%rdi
    5559:	e8 12 ff ff ff       	callq  5470 <nonnull>
    555e:	c9                   	leaveq 
    555f:	c3                   	retq   

0000000000005560 <xreallocarray>:
    5560:	55                   	push   %rbp
    5561:	48 89 e5             	mov    %rsp,%rbp
    5564:	48 83 ec 30          	sub    $0x30,%rsp
    5568:	48 89 7d e8          	mov    %rdi,-0x18(%rbp)
    556c:	48 89 75 e0          	mov    %rsi,-0x20(%rbp)
    5570:	48 89 55 d8          	mov    %rdx,-0x28(%rbp)
    5574:	48 8b 55 d8          	mov    -0x28(%rbp),%rdx
    5578:	48 8b 4d e0          	mov    -0x20(%rbp),%rcx
    557c:	48 8b 45 e8          	mov    -0x18(%rbp),%rax
    5580:	48 89 ce             	mov    %rcx,%rsi
    5583:	48 89 c7             	mov    %rax,%rdi
    5586:	e8 05 cb ff ff       	callq  2090 <reallocarray@plt>
    558b:	48 89 45 f8          	mov    %rax,-0x8(%rbp)
    558f:	48 83 7d f8 00       	cmpq   $0x0,-0x8(%rbp)
    5594:	75 1a                	jne    55b0 <xreallocarray+0x50>
    5596:	48 83 7d e8 00       	cmpq   $0x0,-0x18(%rbp)
    559b:	74 0e                	je     55ab <xreallocarray+0x4b>
    559d:	48 83 7d e0 00       	cmpq   $0x0,-0x20(%rbp)
    55a2:	74 0c                	je     55b0 <xreallocarray+0x50>
    55a4:	48 83 7d d8 00       	cmpq   $0x0,-0x28(%rbp)
    55a9:	74 05                	je     55b0 <xreallocarray+0x50>
    55ab:	e8 80 04 00 00       	callq  5a30 <xalloc_die>
    55b0:	48 8b 45 f8          	mov    -0x8(%rbp),%rax
    55b4:	c9                   	leaveq 
    55b5:	c3                   	retq   

00000000000055b6 <xireallocarray>:
    55b6:	55                   	push   %rbp
    55b7:	48 89 e5             	mov    %rsp,%rbp
    55ba:	48 83 ec 20          	sub    $0x20,%rsp
    55be:	48 89 7d f8          	mov    %rdi,-0x8(%rbp)
    55c2:	48 89 75 f0          	mov    %rsi,-0x10(%rbp)
    55c6:	48 89 55 e8          	mov    %rdx,-0x18(%rbp)
    55ca:	48 8b 55 e8          	mov    -0x18(%rbp),%rdx
    55ce:	48 8b 4d f0          	mov    -0x10(%rbp),%rcx
    55d2:	48 8b 45 f8          	mov    -0x8(%rbp),%rax
    55d6:	48 89 ce             	mov    %rcx,%rsi
    55d9:	48 89 c7             	mov    %rax,%rdi
    55dc:	e8 cb 08 00 00       	callq  5eac <ireallocarray>
    55e1:	48 89 c7             	mov    %rax,%rdi
    55e4:	e8 87 fe ff ff       	callq  5470 <nonnull>
    55e9:	c9                   	leaveq 
    55ea:	c3                   	retq   

00000000000055eb <xnmalloc>:
    55eb:	55                   	push   %rbp
    55ec:	48 89 e5             	mov    %rsp,%rbp
    55ef:	48 83 ec 10          	sub    $0x10,%rsp
    55f3:	48 89 7d f8          	mov    %rdi,-0x8(%rbp)
    55f7:	48 89 75 f0          	mov    %rsi,-0x10(%rbp)
    55fb:	48 8b 55 f0          	mov    -0x10(%rbp),%rdx
    55ff:	48 8b 45 f8          	mov    -0x8(%rbp),%rax
    5603:	48 89 c6             	mov    %rax,%rsi
    5606:	bf 00 00 00 00       	mov    $0x0,%edi
    560b:	e8 50 ff ff ff       	callq  5560 <xreallocarray>
    5610:	c9                   	leaveq 
    5611:	c3                   	retq   

0000000000005612 <xinmalloc>:
    5612:	55                   	push   %rbp
    5613:	48 89 e5             	mov    %rsp,%rbp
    5616:	48 83 ec 10          	sub    $0x10,%rsp
    561a:	48 89 7d f8          	mov    %rdi,-0x8(%rbp)
    561e:	48 89 75 f0          	mov    %rsi,-0x10(%rbp)
    5622:	48 8b 55 f0          	mov    -0x10(%rbp),%rdx
    5626:	48 8b 45 f8          	mov    -0x8(%rbp),%rax
    562a:	48 89 c6             	mov    %rax,%rsi
    562d:	bf 00 00 00 00       	mov    $0x0,%edi
    5632:	e8 7f ff ff ff       	callq  55b6 <xireallocarray>
    5637:	c9                   	leaveq 
    5638:	c3                   	retq   

0000000000005639 <x2realloc>:
    5639:	55                   	push   %rbp
    563a:	48 89 e5             	mov    %rsp,%rbp
    563d:	48 83 ec 10          	sub    $0x10,%rsp
    5641:	48 89 7d f8          	mov    %rdi,-0x8(%rbp)
    5645:	48 89 75 f0          	mov    %rsi,-0x10(%rbp)
    5649:	48 8b 4d f0          	mov    -0x10(%rbp),%rcx
    564d:	48 8b 45 f8          	mov    -0x8(%rbp),%rax
    5651:	ba 01 00 00 00       	mov    $0x1,%edx
    5656:	48 89 ce             	mov    %rcx,%rsi
    5659:	48 89 c7             	mov    %rax,%rdi
    565c:	e8 02 00 00 00       	callq  5663 <x2nrealloc>
    5661:	c9                   	leaveq 
    5662:	c3                   	retq   

0000000000005663 <x2nrealloc>:
    5663:	55                   	push   %rbp
    5664:	48 89 e5             	mov    %rsp,%rbp
    5667:	48 83 ec 30          	sub    $0x30,%rsp
    566b:	48 89 7d e8          	mov    %rdi,-0x18(%rbp)
    566f:	48 89 75 e0          	mov    %rsi,-0x20(%rbp)
    5673:	48 89 55 d8          	mov    %rdx,-0x28(%rbp)
    5677:	48 8b 45 e0          	mov    -0x20(%rbp),%rax
    567b:	48 8b 00             	mov    (%rax),%rax
    567e:	48 89 45 f8          	mov    %rax,-0x8(%rbp)
    5682:	48 83 7d e8 00       	cmpq   $0x0,-0x18(%rbp)
    5687:	75 35                	jne    56be <x2nrealloc+0x5b>
    5689:	48 8b 45 f8          	mov    -0x8(%rbp),%rax
    568d:	48 85 c0             	test   %rax,%rax
    5690:	75 5d                	jne    56ef <x2nrealloc+0x8c>
    5692:	b8 80 00 00 00       	mov    $0x80,%eax
    5697:	ba 00 00 00 00       	mov    $0x0,%edx
    569c:	48 f7 75 d8          	divq   -0x28(%rbp)
    56a0:	48 89 45 f8          	mov    %rax,-0x8(%rbp)
    56a4:	48 8b 45 f8          	mov    -0x8(%rbp),%rax
    56a8:	48 85 c0             	test   %rax,%rax
    56ab:	0f 94 c0             	sete   %al
    56ae:	0f b6 d0             	movzbl %al,%edx
    56b1:	48 8b 45 f8          	mov    -0x8(%rbp),%rax
    56b5:	48 01 d0             	add    %rdx,%rax
    56b8:	48 89 45 f8          	mov    %rax,-0x8(%rbp)
    56bc:	eb 31                	jmp    56ef <x2nrealloc+0x8c>
    56be:	48 8b 55 f8          	mov    -0x8(%rbp),%rdx
    56c2:	48 8b 45 f8          	mov    -0x8(%rbp),%rax
    56c6:	48 d1 e8             	shr    %rax
    56c9:	48 83 c0 01          	add    $0x1,%rax
    56cd:	b9 00 00 00 00       	mov    $0x0,%ecx
    56d2:	48 01 d0             	add    %rdx,%rax
    56d5:	73 05                	jae    56dc <x2nrealloc+0x79>
    56d7:	b9 01 00 00 00       	mov    $0x1,%ecx
    56dc:	48 89 45 f8          	mov    %rax,-0x8(%rbp)
    56e0:	48 89 c8             	mov    %rcx,%rax
    56e3:	83 e0 01             	and    $0x1,%eax
    56e6:	84 c0                	test   %al,%al
    56e8:	74 05                	je     56ef <x2nrealloc+0x8c>
    56ea:	e8 41 03 00 00       	callq  5a30 <xalloc_die>
    56ef:	48 8b 4d f8          	mov    -0x8(%rbp),%rcx
    56f3:	48 8b 55 d8          	mov    -0x28(%rbp),%rdx
    56f7:	48 8b 45 e8          	mov    -0x18(%rbp),%rax
    56fb:	48 89 ce             	mov    %rcx,%rsi
    56fe:	48 89 c7             	mov    %rax,%rdi
    5701:	e8 5a fe ff ff       	callq  5560 <xreallocarray>
    5706:	48 89 45 e8          	mov    %rax,-0x18(%rbp)
    570a:	48 8b 55 f8          	mov    -0x8(%rbp),%rdx
    570e:	48 8b 45 e0          	mov    -0x20(%rbp),%rax
    5712:	48 89 10             	mov    %rdx,(%rax)
    5715:	48 8b 45 e8          	mov    -0x18(%rbp),%rax
    5719:	c9                   	leaveq 
    571a:	c3                   	retq   

000000000000571b <xpalloc>:
    571b:	55                   	push   %rbp
    571c:	48 89 e5             	mov    %rsp,%rbp
    571f:	48 83 ec 50          	sub    $0x50,%rsp
    5723:	48 89 7d d8          	mov    %rdi,-0x28(%rbp)
    5727:	48 89 75 d0          	mov    %rsi,-0x30(%rbp)
    572b:	48 89 55 c8          	mov    %rdx,-0x38(%rbp)
    572f:	48 89 4d c0          	mov    %rcx,-0x40(%rbp)
    5733:	4c 89 45 b8          	mov    %r8,-0x48(%rbp)
    5737:	48 8b 45 d0          	mov    -0x30(%rbp),%rax
    573b:	48 8b 00             	mov    (%rax),%rax
    573e:	48 89 45 f8          	mov    %rax,-0x8(%rbp)
    5742:	48 8b 45 f8          	mov    -0x8(%rbp),%rax
    5746:	48 d1 f8             	sar    %rax
    5749:	48 89 c2             	mov    %rax,%rdx
    574c:	b9 00 00 00 00       	mov    $0x0,%ecx
    5751:	48 8b 45 f8          	mov    -0x8(%rbp),%rax
    5755:	48 01 d0             	add    %rdx,%rax
    5758:	71 05                	jno    575f <xpalloc+0x44>
    575a:	b9 01 00 00 00       	mov    $0x1,%ecx
    575f:	48 89 45 e8          	mov    %rax,-0x18(%rbp)
    5763:	48 89 c8             	mov    %rcx,%rax
    5766:	83 e0 01             	and    $0x1,%eax
    5769:	84 c0                	test   %al,%al
    576b:	74 0e                	je     577b <xpalloc+0x60>
    576d:	48 b8 ff ff ff ff ff 	movabs $0x7fffffffffffffff,%rax
    5774:	ff ff 7f 
    5777:	48 89 45 e8          	mov    %rax,-0x18(%rbp)
    577b:	48 83 7d c0 00       	cmpq   $0x0,-0x40(%rbp)
    5780:	78 12                	js     5794 <xpalloc+0x79>
    5782:	48 8b 45 e8          	mov    -0x18(%rbp),%rax
    5786:	48 39 45 c0          	cmp    %rax,-0x40(%rbp)
    578a:	7d 08                	jge    5794 <xpalloc+0x79>
    578c:	48 8b 45 c0          	mov    -0x40(%rbp),%rax
    5790:	48 89 45 e8          	mov    %rax,-0x18(%rbp)
    5794:	48 8b 45 e8          	mov    -0x18(%rbp),%rax
    5798:	ba 00 00 00 00       	mov    $0x0,%edx
    579d:	48 0f af 45 b8       	imul   -0x48(%rbp),%rax
    57a2:	71 05                	jno    57a9 <xpalloc+0x8e>
    57a4:	ba 01 00 00 00       	mov    $0x1,%edx
    57a9:	48 89 45 e0          	mov    %rax,-0x20(%rbp)
    57ad:	48 89 d0             	mov    %rdx,%rax
    57b0:	83 e0 01             	and    $0x1,%eax
    57b3:	84 c0                	test   %al,%al
    57b5:	74 0c                	je     57c3 <xpalloc+0xa8>
    57b7:	48 b8 ff ff ff ff ff 	movabs $0x7fffffffffffffff,%rax
    57be:	ff ff 7f 
    57c1:	eb 16                	jmp    57d9 <xpalloc+0xbe>
    57c3:	48 8b 45 e0          	mov    -0x20(%rbp),%rax
    57c7:	48 83 f8 7f          	cmp    $0x7f,%rax
    57cb:	7f 07                	jg     57d4 <xpalloc+0xb9>
    57cd:	b8 80 00 00 00       	mov    $0x80,%eax
    57d2:	eb 05                	jmp    57d9 <xpalloc+0xbe>
    57d4:	b8 00 00 00 00       	mov    $0x0,%eax
    57d9:	48 89 45 f0          	mov    %rax,-0x10(%rbp)
    57dd:	48 83 7d f0 00       	cmpq   $0x0,-0x10(%rbp)
    57e2:	74 23                	je     5807 <xpalloc+0xec>
    57e4:	48 8b 45 f0          	mov    -0x10(%rbp),%rax
    57e8:	48 99                	cqto   
    57ea:	48 f7 7d b8          	idivq  -0x48(%rbp)
    57ee:	48 89 45 e8          	mov    %rax,-0x18(%rbp)
    57f2:	48 8b 45 f0          	mov    -0x10(%rbp),%rax
    57f6:	48 99                	cqto   
    57f8:	48 f7 7d b8          	idivq  -0x48(%rbp)
    57fc:	48 8b 45 f0          	mov    -0x10(%rbp),%rax
    5800:	48 29 d0             	sub    %rdx,%rax
    5803:	48 89 45 e0          	mov    %rax,-0x20(%rbp)
    5807:	48 83 7d d8 00       	cmpq   $0x0,-0x28(%rbp)
    580c:	75 0b                	jne    5819 <xpalloc+0xfe>
    580e:	48 8b 45 d0          	mov    -0x30(%rbp),%rax
    5812:	48 c7 00 00 00 00 00 	movq   $0x0,(%rax)
    5819:	48 8b 45 e8          	mov    -0x18(%rbp),%rax
    581d:	48 2b 45 f8          	sub    -0x8(%rbp),%rax
    5821:	48 39 45 c8          	cmp    %rax,-0x38(%rbp)
    5825:	7e 5e                	jle    5885 <xpalloc+0x16a>
    5827:	b9 00 00 00 00       	mov    $0x0,%ecx
    582c:	48 8b 55 f8          	mov    -0x8(%rbp),%rdx
    5830:	48 8b 45 c8          	mov    -0x38(%rbp),%rax
    5834:	48 01 d0             	add    %rdx,%rax
    5837:	71 05                	jno    583e <xpalloc+0x123>
    5839:	b9 01 00 00 00       	mov    $0x1,%ecx
    583e:	48 89 45 e8          	mov    %rax,-0x18(%rbp)
    5842:	48 89 c8             	mov    %rcx,%rax
    5845:	83 e0 01             	and    $0x1,%eax
    5848:	84 c0                	test   %al,%al
    584a:	75 34                	jne    5880 <xpalloc+0x165>
    584c:	48 83 7d c0 00       	cmpq   $0x0,-0x40(%rbp)
    5851:	78 0a                	js     585d <xpalloc+0x142>
    5853:	48 8b 45 e8          	mov    -0x18(%rbp),%rax
    5857:	48 39 45 c0          	cmp    %rax,-0x40(%rbp)
    585b:	7c 23                	jl     5880 <xpalloc+0x165>
    585d:	48 8b 45 e8          	mov    -0x18(%rbp),%rax
    5861:	ba 00 00 00 00       	mov    $0x0,%edx
    5866:	48 0f af 45 b8       	imul   -0x48(%rbp),%rax
    586b:	71 05                	jno    5872 <xpalloc+0x157>
    586d:	ba 01 00 00 00       	mov    $0x1,%edx
    5872:	48 89 45 e0          	mov    %rax,-0x20(%rbp)
    5876:	48 89 d0             	mov    %rdx,%rax
    5879:	83 e0 01             	and    $0x1,%eax
    587c:	84 c0                	test   %al,%al
    587e:	74 05                	je     5885 <xpalloc+0x16a>
    5880:	e8 ab 01 00 00       	callq  5a30 <xalloc_die>
    5885:	48 8b 45 e0          	mov    -0x20(%rbp),%rax
    5889:	48 89 c2             	mov    %rax,%rdx
    588c:	48 8b 45 d8          	mov    -0x28(%rbp),%rax
    5890:	48 89 d6             	mov    %rdx,%rsi
    5893:	48 89 c7             	mov    %rax,%rdi
    5896:	e8 51 fc ff ff       	callq  54ec <xrealloc>
    589b:	48 89 45 d8          	mov    %rax,-0x28(%rbp)
    589f:	48 8b 55 e8          	mov    -0x18(%rbp),%rdx
    58a3:	48 8b 45 d0          	mov    -0x30(%rbp),%rax
    58a7:	48 89 10             	mov    %rdx,(%rax)
    58aa:	48 8b 45 d8          	mov    -0x28(%rbp),%rax
    58ae:	c9                   	leaveq 
    58af:	c3                   	retq   

00000000000058b0 <xzalloc>:
    58b0:	55                   	push   %rbp
    58b1:	48 89 e5             	mov    %rsp,%rbp
    58b4:	48 83 ec 10          	sub    $0x10,%rsp
    58b8:	48 89 7d f8          	mov    %rdi,-0x8(%rbp)
    58bc:	48 8b 45 f8          	mov    -0x8(%rbp),%rax
    58c0:	be 01 00 00 00       	mov    $0x1,%esi
    58c5:	48 89 c7             	mov    %rax,%rdi
    58c8:	e8 21 00 00 00       	callq  58ee <xcalloc>
    58cd:	c9                   	leaveq 
    58ce:	c3                   	retq   

00000000000058cf <xizalloc>:
    58cf:	55                   	push   %rbp
    58d0:	48 89 e5             	mov    %rsp,%rbp
    58d3:	48 83 ec 10          	sub    $0x10,%rsp
    58d7:	48 89 7d f8          	mov    %rdi,-0x8(%rbp)
    58db:	48 8b 45 f8          	mov    -0x8(%rbp),%rax
    58df:	be 01 00 00 00       	mov    $0x1,%esi
    58e4:	48 89 c7             	mov    %rax,%rdi
    58e7:	e8 2f 00 00 00       	callq  591b <xicalloc>
    58ec:	c9                   	leaveq 
    58ed:	c3                   	retq   

00000000000058ee <xcalloc>:
    58ee:	55                   	push   %rbp
    58ef:	48 89 e5             	mov    %rsp,%rbp
    58f2:	48 83 ec 10          	sub    $0x10,%rsp
    58f6:	48 89 7d f8          	mov    %rdi,-0x8(%rbp)
    58fa:	48 89 75 f0          	mov    %rsi,-0x10(%rbp)
    58fe:	48 8b 55 f0          	mov    -0x10(%rbp),%rdx
    5902:	48 8b 45 f8          	mov    -0x8(%rbp),%rax
    5906:	48 89 d6             	mov    %rdx,%rsi
    5909:	48 89 c7             	mov    %rax,%rdi
    590c:	e8 7f c8 ff ff       	callq  2190 <calloc@plt>
    5911:	48 89 c7             	mov    %rax,%rdi
    5914:	e8 57 fb ff ff       	callq  5470 <nonnull>
    5919:	c9                   	leaveq 
    591a:	c3                   	retq   

000000000000591b <xicalloc>:
    591b:	55                   	push   %rbp
    591c:	48 89 e5             	mov    %rsp,%rbp
    591f:	48 83 ec 10          	sub    $0x10,%rsp
    5923:	48 89 7d f8          	mov    %rdi,-0x8(%rbp)
    5927:	48 89 75 f0          	mov    %rsi,-0x10(%rbp)
    592b:	48 8b 55 f0          	mov    -0x10(%rbp),%rdx
    592f:	48 8b 45 f8          	mov    -0x8(%rbp),%rax
    5933:	48 89 d6             	mov    %rdx,%rsi
    5936:	48 89 c7             	mov    %rax,%rdi
    5939:	e8 49 05 00 00       	callq  5e87 <icalloc>
    593e:	48 89 c7             	mov    %rax,%rdi
    5941:	e8 2a fb ff ff       	callq  5470 <nonnull>
    5946:	c9                   	leaveq 
    5947:	c3                   	retq   

0000000000005948 <xmemdup>:
    5948:	55                   	push   %rbp
    5949:	48 89 e5             	mov    %rsp,%rbp
    594c:	48 83 ec 10          	sub    $0x10,%rsp
    5950:	48 89 7d f8          	mov    %rdi,-0x8(%rbp)
    5954:	48 89 75 f0          	mov    %rsi,-0x10(%rbp)
    5958:	48 8b 45 f0          	mov    -0x10(%rbp),%rax
    595c:	48 89 c7             	mov    %rax,%rdi
    595f:	e8 2a fb ff ff       	callq  548e <xmalloc>
    5964:	48 89 c1             	mov    %rax,%rcx
    5967:	48 8b 55 f0          	mov    -0x10(%rbp),%rdx
    596b:	48 8b 45 f8          	mov    -0x8(%rbp),%rax
    596f:	48 89 c6             	mov    %rax,%rsi
    5972:	48 89 cf             	mov    %rcx,%rdi
    5975:	e8 56 c8 ff ff       	callq  21d0 <memcpy@plt>
    597a:	c9                   	leaveq 
    597b:	c3                   	retq   

000000000000597c <ximemdup>:
    597c:	55                   	push   %rbp
    597d:	48 89 e5             	mov    %rsp,%rbp
    5980:	53                   	push   %rbx
    5981:	48 83 ec 18          	sub    $0x18,%rsp
    5985:	48 89 7d e8          	mov    %rdi,-0x18(%rbp)
    5989:	48 89 75 e0          	mov    %rsi,-0x20(%rbp)
    598d:	48 8b 5d e0          	mov    -0x20(%rbp),%rbx
    5991:	48 8b 45 e0          	mov    -0x20(%rbp),%rax
    5995:	48 89 c7             	mov    %rax,%rdi
    5998:	e8 13 fb ff ff       	callq  54b0 <ximalloc>
    599d:	48 89 c1             	mov    %rax,%rcx
    59a0:	48 8b 45 e8          	mov    -0x18(%rbp),%rax
    59a4:	48 89 da             	mov    %rbx,%rdx
    59a7:	48 89 c6             	mov    %rax,%rsi
    59aa:	48 89 cf             	mov    %rcx,%rdi
    59ad:	e8 1e c8 ff ff       	callq  21d0 <memcpy@plt>
    59b2:	48 8b 5d f8          	mov    -0x8(%rbp),%rbx
    59b6:	c9                   	leaveq 
    59b7:	c3                   	retq   

00000000000059b8 <ximemdup0>:
    59b8:	55                   	push   %rbp
    59b9:	48 89 e5             	mov    %rsp,%rbp
    59bc:	48 83 ec 20          	sub    $0x20,%rsp
    59c0:	48 89 7d e8          	mov    %rdi,-0x18(%rbp)
    59c4:	48 89 75 e0          	mov    %rsi,-0x20(%rbp)
    59c8:	48 8b 45 e0          	mov    -0x20(%rbp),%rax
    59cc:	48 83 c0 01          	add    $0x1,%rax
    59d0:	48 89 c7             	mov    %rax,%rdi
    59d3:	e8 d8 fa ff ff       	callq  54b0 <ximalloc>
    59d8:	48 89 45 f8          	mov    %rax,-0x8(%rbp)
    59dc:	48 8b 55 e0          	mov    -0x20(%rbp),%rdx
    59e0:	48 8b 45 f8          	mov    -0x8(%rbp),%rax
    59e4:	48 01 d0             	add    %rdx,%rax
    59e7:	c6 00 00             	movb   $0x0,(%rax)
    59ea:	48 8b 55 e0          	mov    -0x20(%rbp),%rdx
    59ee:	48 8b 4d e8          	mov    -0x18(%rbp),%rcx
    59f2:	48 8b 45 f8          	mov    -0x8(%rbp),%rax
    59f6:	48 89 ce             	mov    %rcx,%rsi
    59f9:	48 89 c7             	mov    %rax,%rdi
    59fc:	e8 cf c7 ff ff       	callq  21d0 <memcpy@plt>
    5a01:	c9                   	leaveq 
    5a02:	c3                   	retq   

0000000000005a03 <xstrdup>:
    5a03:	55                   	push   %rbp
    5a04:	48 89 e5             	mov    %rsp,%rbp
    5a07:	48 83 ec 10          	sub    $0x10,%rsp
    5a0b:	48 89 7d f8          	mov    %rdi,-0x8(%rbp)
    5a0f:	48 8b 45 f8          	mov    -0x8(%rbp),%rax
    5a13:	48 89 c7             	mov    %rax,%rdi
    5a16:	e8 c5 c6 ff ff       	callq  20e0 <strlen@plt>
    5a1b:	48 8d 50 01          	lea    0x1(%rax),%rdx
    5a1f:	48 8b 45 f8          	mov    -0x8(%rbp),%rax
    5a23:	48 89 d6             	mov    %rdx,%rsi
    5a26:	48 89 c7             	mov    %rax,%rdi
    5a29:	e8 1a ff ff ff       	callq  5948 <xmemdup>
    5a2e:	c9                   	leaveq 
    5a2f:	c3                   	retq   

0000000000005a30 <xalloc_die>:
    5a30:	55                   	push   %rbp
    5a31:	48 89 e5             	mov    %rsp,%rbp
    5a34:	48 83 ec 10          	sub    $0x10,%rsp
    5a38:	48 8d 3d 50 22 00 00 	lea    0x2250(%rip),%rdi        # 7c8f <version_etc_copyright+0x2f>
    5a3f:	e8 cc c6 ff ff       	callq  2110 <gettext@plt>
    5a44:	48 89 c1             	mov    %rax,%rcx
    5a47:	8b 05 4b 47 00 00    	mov    0x474b(%rip),%eax        # a198 <exit_failure>
    5a4d:	89 45 fc             	mov    %eax,-0x4(%rbp)
    5a50:	c7 45 f8 00 00 00 00 	movl   $0x0,-0x8(%rbp)
    5a57:	48 8d 05 42 22 00 00 	lea    0x2242(%rip),%rax        # 7ca0 <version_etc_copyright+0x40>
    5a5e:	48 89 45 f0          	mov    %rax,-0x10(%rbp)
    5a62:	48 8b 55 f0          	mov    -0x10(%rbp),%rdx
    5a66:	8b 75 f8             	mov    -0x8(%rbp),%esi
    5a69:	8b 45 fc             	mov    -0x4(%rbp),%eax
    5a6c:	89 c7                	mov    %eax,%edi
    5a6e:	b8 00 00 00 00       	mov    $0x0,%eax
    5a73:	e8 e8 c7 ff ff       	callq  2260 <error@plt>
    5a78:	90                   	nop
    5a79:	e8 c2 c5 ff ff       	callq  2040 <abort@plt>

0000000000005a7e <last_component>:
    5a7e:	55                   	push   %rbp
    5a7f:	48 89 e5             	mov    %rsp,%rbp
    5a82:	48 89 7d d8          	mov    %rdi,-0x28(%rbp)
    5a86:	48 8b 45 d8          	mov    -0x28(%rbp),%rax
    5a8a:	48 89 45 f8          	mov    %rax,-0x8(%rbp)
    5a8e:	c6 45 ef 00          	movb   $0x0,-0x11(%rbp)
    5a92:	eb 05                	jmp    5a99 <last_component+0x1b>
    5a94:	48 83 45 f8 01       	addq   $0x1,-0x8(%rbp)
    5a99:	48 8b 45 f8          	mov    -0x8(%rbp),%rax
    5a9d:	0f b6 00             	movzbl (%rax),%eax
    5aa0:	3c 2f                	cmp    $0x2f,%al
    5aa2:	74 f0                	je     5a94 <last_component+0x16>
    5aa4:	48 8b 45 f8          	mov    -0x8(%rbp),%rax
    5aa8:	48 89 45 f0          	mov    %rax,-0x10(%rbp)
    5aac:	eb 28                	jmp    5ad6 <last_component+0x58>
    5aae:	48 8b 45 f0          	mov    -0x10(%rbp),%rax
    5ab2:	0f b6 00             	movzbl (%rax),%eax
    5ab5:	3c 2f                	cmp    $0x2f,%al
    5ab7:	75 06                	jne    5abf <last_component+0x41>
    5ab9:	c6 45 ef 01          	movb   $0x1,-0x11(%rbp)
    5abd:	eb 12                	jmp    5ad1 <last_component+0x53>
    5abf:	80 7d ef 00          	cmpb   $0x0,-0x11(%rbp)
    5ac3:	74 0c                	je     5ad1 <last_component+0x53>
    5ac5:	48 8b 45 f0          	mov    -0x10(%rbp),%rax
    5ac9:	48 89 45 f8          	mov    %rax,-0x8(%rbp)
    5acd:	c6 45 ef 00          	movb   $0x0,-0x11(%rbp)
    5ad1:	48 83 45 f0 01       	addq   $0x1,-0x10(%rbp)
    5ad6:	48 8b 45 f0          	mov    -0x10(%rbp),%rax
    5ada:	0f b6 00             	movzbl (%rax),%eax
    5add:	84 c0                	test   %al,%al
    5adf:	75 cd                	jne    5aae <last_component+0x30>
    5ae1:	48 8b 45 f8          	mov    -0x8(%rbp),%rax
    5ae5:	5d                   	pop    %rbp
    5ae6:	c3                   	retq   

0000000000005ae7 <base_len>:
    5ae7:	55                   	push   %rbp
    5ae8:	48 89 e5             	mov    %rsp,%rbp
    5aeb:	48 83 ec 20          	sub    $0x20,%rsp
    5aef:	48 89 7d e8          	mov    %rdi,-0x18(%rbp)
    5af3:	48 c7 45 f0 00 00 00 	movq   $0x0,-0x10(%rbp)
    5afa:	00 
    5afb:	48 8b 45 e8          	mov    -0x18(%rbp),%rax
    5aff:	48 89 c7             	mov    %rax,%rdi
    5b02:	e8 d9 c5 ff ff       	callq  20e0 <strlen@plt>
    5b07:	48 89 45 f8          	mov    %rax,-0x8(%rbp)
    5b0b:	eb 05                	jmp    5b12 <base_len+0x2b>
    5b0d:	48 83 6d f8 01       	subq   $0x1,-0x8(%rbp)
    5b12:	48 83 7d f8 01       	cmpq   $0x1,-0x8(%rbp)
    5b17:	76 16                	jbe    5b2f <base_len+0x48>
    5b19:	48 8b 45 f8          	mov    -0x8(%rbp),%rax
    5b1d:	48 8d 50 ff          	lea    -0x1(%rax),%rdx
    5b21:	48 8b 45 e8          	mov    -0x18(%rbp),%rax
    5b25:	48 01 d0             	add    %rdx,%rax
    5b28:	0f b6 00             	movzbl (%rax),%eax
    5b2b:	3c 2f                	cmp    $0x2f,%al
    5b2d:	74 de                	je     5b0d <base_len+0x26>
    5b2f:	48 8b 45 f8          	mov    -0x8(%rbp),%rax
    5b33:	c9                   	leaveq 
    5b34:	c3                   	retq   

0000000000005b35 <c_strcasecmp>:
    5b35:	55                   	push   %rbp
    5b36:	48 89 e5             	mov    %rsp,%rbp
    5b39:	41 54                	push   %r12
    5b3b:	53                   	push   %rbx
    5b3c:	48 83 ec 20          	sub    $0x20,%rsp
    5b40:	48 89 7d d8          	mov    %rdi,-0x28(%rbp)
    5b44:	48 89 75 d0          	mov    %rsi,-0x30(%rbp)
    5b48:	4c 8b 65 d8          	mov    -0x28(%rbp),%r12
    5b4c:	48 8b 5d d0          	mov    -0x30(%rbp),%rbx
    5b50:	49 39 dc             	cmp    %rbx,%r12
    5b53:	75 07                	jne    5b5c <c_strcasecmp+0x27>
    5b55:	b8 00 00 00 00       	mov    $0x0,%eax
    5b5a:	eb 46                	jmp    5ba2 <c_strcasecmp+0x6d>
    5b5c:	41 0f b6 04 24       	movzbl (%r12),%eax
    5b61:	0f b6 c0             	movzbl %al,%eax
    5b64:	89 c7                	mov    %eax,%edi
    5b66:	e8 7a 06 00 00       	callq  61e5 <c_tolower>
    5b6b:	88 45 ef             	mov    %al,-0x11(%rbp)
    5b6e:	0f b6 03             	movzbl (%rbx),%eax
    5b71:	0f b6 c0             	movzbl %al,%eax
    5b74:	89 c7                	mov    %eax,%edi
    5b76:	e8 6a 06 00 00       	callq  61e5 <c_tolower>
    5b7b:	88 45 ee             	mov    %al,-0x12(%rbp)
    5b7e:	80 7d ef 00          	cmpb   $0x0,-0x11(%rbp)
    5b82:	74 13                	je     5b97 <c_strcasecmp+0x62>
    5b84:	49 83 c4 01          	add    $0x1,%r12
    5b88:	48 83 c3 01          	add    $0x1,%rbx
    5b8c:	0f b6 45 ef          	movzbl -0x11(%rbp),%eax
    5b90:	3a 45 ee             	cmp    -0x12(%rbp),%al
    5b93:	74 c7                	je     5b5c <c_strcasecmp+0x27>
    5b95:	eb 01                	jmp    5b98 <c_strcasecmp+0x63>
    5b97:	90                   	nop
    5b98:	0f b6 45 ef          	movzbl -0x11(%rbp),%eax
    5b9c:	0f b6 55 ee          	movzbl -0x12(%rbp),%edx
    5ba0:	29 d0                	sub    %edx,%eax
    5ba2:	48 83 c4 20          	add    $0x20,%rsp
    5ba6:	5b                   	pop    %rbx
    5ba7:	41 5c                	pop    %r12
    5ba9:	5d                   	pop    %rbp
    5baa:	c3                   	retq   

0000000000005bab <close_stream>:
    5bab:	55                   	push   %rbp
    5bac:	48 89 e5             	mov    %rsp,%rbp
    5baf:	48 83 ec 20          	sub    $0x20,%rsp
    5bb3:	48 89 7d e8          	mov    %rdi,-0x18(%rbp)
    5bb7:	48 8b 45 e8          	mov    -0x18(%rbp),%rax
    5bbb:	48 89 c7             	mov    %rax,%rdi
    5bbe:	e8 bd c4 ff ff       	callq  2080 <__fpending@plt>
    5bc3:	48 85 c0             	test   %rax,%rax
    5bc6:	0f 95 c0             	setne  %al
    5bc9:	88 45 ff             	mov    %al,-0x1(%rbp)
    5bcc:	48 8b 45 e8          	mov    -0x18(%rbp),%rax
    5bd0:	48 89 c7             	mov    %rax,%rdi
    5bd3:	e8 a8 c5 ff ff       	callq  2180 <ferror_unlocked@plt>
    5bd8:	85 c0                	test   %eax,%eax
    5bda:	0f 95 c0             	setne  %al
    5bdd:	88 45 fe             	mov    %al,-0x2(%rbp)
    5be0:	48 8b 45 e8          	mov    -0x18(%rbp),%rax
    5be4:	48 89 c7             	mov    %rax,%rdi
    5be7:	e8 4a 00 00 00       	callq  5c36 <rpl_fclose>
    5bec:	85 c0                	test   %eax,%eax
    5bee:	0f 95 c0             	setne  %al
    5bf1:	88 45 fd             	mov    %al,-0x3(%rbp)
    5bf4:	80 7d fe 00          	cmpb   $0x0,-0x2(%rbp)
    5bf8:	75 18                	jne    5c12 <close_stream+0x67>
    5bfa:	80 7d fd 00          	cmpb   $0x0,-0x3(%rbp)
    5bfe:	74 2f                	je     5c2f <close_stream+0x84>
    5c00:	80 7d ff 00          	cmpb   $0x0,-0x1(%rbp)
    5c04:	75 0c                	jne    5c12 <close_stream+0x67>
    5c06:	e8 45 c4 ff ff       	callq  2050 <__errno_location@plt>
    5c0b:	8b 00                	mov    (%rax),%eax
    5c0d:	83 f8 09             	cmp    $0x9,%eax
    5c10:	74 1d                	je     5c2f <close_stream+0x84>
    5c12:	0f b6 45 fd          	movzbl -0x3(%rbp),%eax
    5c16:	83 f0 01             	xor    $0x1,%eax
    5c19:	84 c0                	test   %al,%al
    5c1b:	74 0b                	je     5c28 <close_stream+0x7d>
    5c1d:	e8 2e c4 ff ff       	callq  2050 <__errno_location@plt>
    5c22:	c7 00 00 00 00 00    	movl   $0x0,(%rax)
    5c28:	b8 ff ff ff ff       	mov    $0xffffffff,%eax
    5c2d:	eb 05                	jmp    5c34 <close_stream+0x89>
    5c2f:	b8 00 00 00 00       	mov    $0x0,%eax
    5c34:	c9                   	leaveq 
    5c35:	c3                   	retq   

0000000000005c36 <rpl_fclose>:
    5c36:	55                   	push   %rbp
    5c37:	48 89 e5             	mov    %rsp,%rbp
    5c3a:	48 83 ec 20          	sub    $0x20,%rsp
    5c3e:	48 89 7d e8          	mov    %rdi,-0x18(%rbp)
    5c42:	c7 45 fc 00 00 00 00 	movl   $0x0,-0x4(%rbp)
    5c49:	c7 45 f8 00 00 00 00 	movl   $0x0,-0x8(%rbp)
    5c50:	48 8b 45 e8          	mov    -0x18(%rbp),%rax
    5c54:	48 89 c7             	mov    %rax,%rdi
    5c57:	e8 94 c5 ff ff       	callq  21f0 <fileno@plt>
    5c5c:	89 45 f4             	mov    %eax,-0xc(%rbp)
    5c5f:	83 7d f4 00          	cmpl   $0x0,-0xc(%rbp)
    5c63:	79 0e                	jns    5c73 <rpl_fclose+0x3d>
    5c65:	48 8b 45 e8          	mov    -0x18(%rbp),%rax
    5c69:	48 89 c7             	mov    %rax,%rdi
    5c6c:	e8 3f c4 ff ff       	callq  20b0 <fclose@plt>
    5c71:	eb 76                	jmp    5ce9 <rpl_fclose+0xb3>
    5c73:	48 8b 45 e8          	mov    -0x18(%rbp),%rax
    5c77:	48 89 c7             	mov    %rax,%rdi
    5c7a:	e8 b1 c5 ff ff       	callq  2230 <__freading@plt>
    5c7f:	85 c0                	test   %eax,%eax
    5c81:	74 23                	je     5ca6 <rpl_fclose+0x70>
    5c83:	48 8b 45 e8          	mov    -0x18(%rbp),%rax
    5c87:	48 89 c7             	mov    %rax,%rdi
    5c8a:	e8 61 c5 ff ff       	callq  21f0 <fileno@plt>
    5c8f:	ba 01 00 00 00       	mov    $0x1,%edx
    5c94:	be 00 00 00 00       	mov    $0x0,%esi
    5c99:	89 c7                	mov    %eax,%edi
    5c9b:	e8 a0 c4 ff ff       	callq  2140 <lseek@plt>
    5ca0:	48 83 f8 ff          	cmp    $0xffffffffffffffff,%rax
    5ca4:	74 1a                	je     5cc0 <rpl_fclose+0x8a>
    5ca6:	48 8b 45 e8          	mov    -0x18(%rbp),%rax
    5caa:	48 89 c7             	mov    %rax,%rdi
    5cad:	e8 6d 00 00 00       	callq  5d1f <rpl_fflush>
    5cb2:	85 c0                	test   %eax,%eax
    5cb4:	74 0a                	je     5cc0 <rpl_fclose+0x8a>
    5cb6:	e8 95 c3 ff ff       	callq  2050 <__errno_location@plt>
    5cbb:	8b 00                	mov    (%rax),%eax
    5cbd:	89 45 fc             	mov    %eax,-0x4(%rbp)
    5cc0:	48 8b 45 e8          	mov    -0x18(%rbp),%rax
    5cc4:	48 89 c7             	mov    %rax,%rdi
    5cc7:	e8 e4 c3 ff ff       	callq  20b0 <fclose@plt>
    5ccc:	89 45 f8             	mov    %eax,-0x8(%rbp)
    5ccf:	83 7d fc 00          	cmpl   $0x0,-0x4(%rbp)
    5cd3:	74 11                	je     5ce6 <rpl_fclose+0xb0>
    5cd5:	e8 76 c3 ff ff       	callq  2050 <__errno_location@plt>
    5cda:	8b 55 fc             	mov    -0x4(%rbp),%edx
    5cdd:	89 10                	mov    %edx,(%rax)
    5cdf:	c7 45 f8 ff ff ff ff 	movl   $0xffffffff,-0x8(%rbp)
    5ce6:	8b 45 f8             	mov    -0x8(%rbp),%eax
    5ce9:	c9                   	leaveq 
    5cea:	c3                   	retq   

0000000000005ceb <clear_ungetc_buffer_preserving_position>:
    5ceb:	55                   	push   %rbp
    5cec:	48 89 e5             	mov    %rsp,%rbp
    5cef:	48 83 ec 10          	sub    $0x10,%rsp
    5cf3:	48 89 7d f8          	mov    %rdi,-0x8(%rbp)
    5cf7:	48 8b 45 f8          	mov    -0x8(%rbp),%rax
    5cfb:	8b 00                	mov    (%rax),%eax
    5cfd:	25 00 01 00 00       	and    $0x100,%eax
    5d02:	85 c0                	test   %eax,%eax
    5d04:	74 16                	je     5d1c <clear_ungetc_buffer_preserving_position+0x31>
    5d06:	48 8b 45 f8          	mov    -0x8(%rbp),%rax
    5d0a:	ba 01 00 00 00       	mov    $0x1,%edx
    5d0f:	be 00 00 00 00       	mov    $0x0,%esi
    5d14:	48 89 c7             	mov    %rax,%rdi
    5d17:	e8 4e 00 00 00       	callq  5d6a <rpl_fseeko>
    5d1c:	90                   	nop
    5d1d:	c9                   	leaveq 
    5d1e:	c3                   	retq   

0000000000005d1f <rpl_fflush>:
    5d1f:	55                   	push   %rbp
    5d20:	48 89 e5             	mov    %rsp,%rbp
    5d23:	48 83 ec 10          	sub    $0x10,%rsp
    5d27:	48 89 7d f8          	mov    %rdi,-0x8(%rbp)
    5d2b:	48 83 7d f8 00       	cmpq   $0x0,-0x8(%rbp)
    5d30:	74 10                	je     5d42 <rpl_fflush+0x23>
    5d32:	48 8b 45 f8          	mov    -0x8(%rbp),%rax
    5d36:	48 89 c7             	mov    %rax,%rdi
    5d39:	e8 f2 c4 ff ff       	callq  2230 <__freading@plt>
    5d3e:	85 c0                	test   %eax,%eax
    5d40:	75 0e                	jne    5d50 <rpl_fflush+0x31>
    5d42:	48 8b 45 f8          	mov    -0x8(%rbp),%rax
    5d46:	48 89 c7             	mov    %rax,%rdi
    5d49:	e8 c2 c4 ff ff       	callq  2210 <fflush@plt>
    5d4e:	eb 18                	jmp    5d68 <rpl_fflush+0x49>
    5d50:	48 8b 45 f8          	mov    -0x8(%rbp),%rax
    5d54:	48 89 c7             	mov    %rax,%rdi
    5d57:	e8 8f ff ff ff       	callq  5ceb <clear_ungetc_buffer_preserving_position>
    5d5c:	48 8b 45 f8          	mov    -0x8(%rbp),%rax
    5d60:	48 89 c7             	mov    %rax,%rdi
    5d63:	e8 a8 c4 ff ff       	callq  2210 <fflush@plt>
    5d68:	c9                   	leaveq 
    5d69:	c3                   	retq   

0000000000005d6a <rpl_fseeko>:
    5d6a:	55                   	push   %rbp
    5d6b:	48 89 e5             	mov    %rsp,%rbp
    5d6e:	48 83 ec 30          	sub    $0x30,%rsp
    5d72:	48 89 7d e8          	mov    %rdi,-0x18(%rbp)
    5d76:	48 89 75 e0          	mov    %rsi,-0x20(%rbp)
    5d7a:	89 55 dc             	mov    %edx,-0x24(%rbp)
    5d7d:	48 8b 45 e8          	mov    -0x18(%rbp),%rax
    5d81:	48 8b 50 10          	mov    0x10(%rax),%rdx
    5d85:	48 8b 45 e8          	mov    -0x18(%rbp),%rax
    5d89:	48 8b 40 08          	mov    0x8(%rax),%rax
    5d8d:	48 39 c2             	cmp    %rax,%rdx
    5d90:	75 7a                	jne    5e0c <rpl_fseeko+0xa2>
    5d92:	48 8b 45 e8          	mov    -0x18(%rbp),%rax
    5d96:	48 8b 50 28          	mov    0x28(%rax),%rdx
    5d9a:	48 8b 45 e8          	mov    -0x18(%rbp),%rax
    5d9e:	48 8b 40 20          	mov    0x20(%rax),%rax
    5da2:	48 39 c2             	cmp    %rax,%rdx
    5da5:	75 65                	jne    5e0c <rpl_fseeko+0xa2>
    5da7:	48 8b 45 e8          	mov    -0x18(%rbp),%rax
    5dab:	48 8b 40 48          	mov    0x48(%rax),%rax
    5daf:	48 85 c0             	test   %rax,%rax
    5db2:	75 58                	jne    5e0c <rpl_fseeko+0xa2>
    5db4:	48 8b 45 e8          	mov    -0x18(%rbp),%rax
    5db8:	48 89 c7             	mov    %rax,%rdi
    5dbb:	e8 30 c4 ff ff       	callq  21f0 <fileno@plt>
    5dc0:	89 c1                	mov    %eax,%ecx
    5dc2:	8b 55 dc             	mov    -0x24(%rbp),%edx
    5dc5:	48 8b 45 e0          	mov    -0x20(%rbp),%rax
    5dc9:	48 89 c6             	mov    %rax,%rsi
    5dcc:	89 cf                	mov    %ecx,%edi
    5dce:	e8 6d c3 ff ff       	callq  2140 <lseek@plt>
    5dd3:	48 89 45 f8          	mov    %rax,-0x8(%rbp)
    5dd7:	48 83 7d f8 ff       	cmpq   $0xffffffffffffffff,-0x8(%rbp)
    5ddc:	75 07                	jne    5de5 <rpl_fseeko+0x7b>
    5dde:	b8 ff ff ff ff       	mov    $0xffffffff,%eax
    5de3:	eb 3d                	jmp    5e22 <rpl_fseeko+0xb8>
    5de5:	48 8b 45 e8          	mov    -0x18(%rbp),%rax
    5de9:	8b 00                	mov    (%rax),%eax
    5deb:	83 e0 ef             	and    $0xffffffef,%eax
    5dee:	89 c2                	mov    %eax,%edx
    5df0:	48 8b 45 e8          	mov    -0x18(%rbp),%rax
    5df4:	89 10                	mov    %edx,(%rax)
    5df6:	48 8b 45 e8          	mov    -0x18(%rbp),%rax
    5dfa:	48 8b 55 f8          	mov    -0x8(%rbp),%rdx
    5dfe:	48 89 90 90 00 00 00 	mov    %rdx,0x90(%rax)
    5e05:	b8 00 00 00 00       	mov    $0x0,%eax
    5e0a:	eb 16                	jmp    5e22 <rpl_fseeko+0xb8>
    5e0c:	8b 55 dc             	mov    -0x24(%rbp),%edx
    5e0f:	48 8b 4d e0          	mov    -0x20(%rbp),%rcx
    5e13:	48 8b 45 e8          	mov    -0x18(%rbp),%rax
    5e17:	48 89 ce             	mov    %rcx,%rsi
    5e1a:	48 89 c7             	mov    %rax,%rdi
    5e1d:	e8 4e c4 ff ff       	callq  2270 <fseeko@plt>
    5e22:	c9                   	leaveq 
    5e23:	c3                   	retq   

0000000000005e24 <_gl_alloc_nomem>:
    5e24:	55                   	push   %rbp
    5e25:	48 89 e5             	mov    %rsp,%rbp
    5e28:	e8 23 c2 ff ff       	callq  2050 <__errno_location@plt>
    5e2d:	c7 00 0c 00 00 00    	movl   $0xc,(%rax)
    5e33:	b8 00 00 00 00       	mov    $0x0,%eax
    5e38:	5d                   	pop    %rbp
    5e39:	c3                   	retq   

0000000000005e3a <imalloc>:
    5e3a:	55                   	push   %rbp
    5e3b:	48 89 e5             	mov    %rsp,%rbp
    5e3e:	48 83 ec 10          	sub    $0x10,%rsp
    5e42:	48 89 7d f8          	mov    %rdi,-0x8(%rbp)
    5e46:	48 8b 45 f8          	mov    -0x8(%rbp),%rax
    5e4a:	48 89 c7             	mov    %rax,%rdi
    5e4d:	e8 ae c3 ff ff       	callq  2200 <malloc@plt>
    5e52:	c9                   	leaveq 
    5e53:	c3                   	retq   

0000000000005e54 <irealloc>:
    5e54:	55                   	push   %rbp
    5e55:	48 89 e5             	mov    %rsp,%rbp
    5e58:	48 83 ec 10          	sub    $0x10,%rsp
    5e5c:	48 89 7d f8          	mov    %rdi,-0x8(%rbp)
    5e60:	48 89 75 f0          	mov    %rsi,-0x10(%rbp)
    5e64:	48 83 7d f0 00       	cmpq   $0x0,-0x10(%rbp)
    5e69:	0f 94 c0             	sete   %al
    5e6c:	0f b6 c0             	movzbl %al,%eax
    5e6f:	48 0b 45 f0          	or     -0x10(%rbp),%rax
    5e73:	48 89 c2             	mov    %rax,%rdx
    5e76:	48 8b 45 f8          	mov    -0x8(%rbp),%rax
    5e7a:	48 89 d6             	mov    %rdx,%rsi
    5e7d:	48 89 c7             	mov    %rax,%rdi
    5e80:	e8 bb c3 ff ff       	callq  2240 <realloc@plt>
    5e85:	c9                   	leaveq 
    5e86:	c3                   	retq   

0000000000005e87 <icalloc>:
    5e87:	55                   	push   %rbp
    5e88:	48 89 e5             	mov    %rsp,%rbp
    5e8b:	48 83 ec 10          	sub    $0x10,%rsp
    5e8f:	48 89 7d f8          	mov    %rdi,-0x8(%rbp)
    5e93:	48 89 75 f0          	mov    %rsi,-0x10(%rbp)
    5e97:	48 8b 55 f0          	mov    -0x10(%rbp),%rdx
    5e9b:	48 8b 45 f8          	mov    -0x8(%rbp),%rax
    5e9f:	48 89 d6             	mov    %rdx,%rsi
    5ea2:	48 89 c7             	mov    %rax,%rdi
    5ea5:	e8 e6 c2 ff ff       	callq  2190 <calloc@plt>
    5eaa:	c9                   	leaveq 
    5eab:	c3                   	retq   

0000000000005eac <ireallocarray>:
    5eac:	55                   	push   %rbp
    5ead:	48 89 e5             	mov    %rsp,%rbp
    5eb0:	48 83 ec 20          	sub    $0x20,%rsp
    5eb4:	48 89 7d f8          	mov    %rdi,-0x8(%rbp)
    5eb8:	48 89 75 f0          	mov    %rsi,-0x10(%rbp)
    5ebc:	48 89 55 e8          	mov    %rdx,-0x18(%rbp)
    5ec0:	48 83 7d f0 00       	cmpq   $0x0,-0x10(%rbp)
    5ec5:	74 07                	je     5ece <ireallocarray+0x22>
    5ec7:	48 83 7d e8 00       	cmpq   $0x0,-0x18(%rbp)
    5ecc:	75 10                	jne    5ede <ireallocarray+0x32>
    5ece:	48 c7 45 e8 01 00 00 	movq   $0x1,-0x18(%rbp)
    5ed5:	00 
    5ed6:	48 8b 45 e8          	mov    -0x18(%rbp),%rax
    5eda:	48 89 45 f0          	mov    %rax,-0x10(%rbp)
    5ede:	48 8b 55 e8          	mov    -0x18(%rbp),%rdx
    5ee2:	48 8b 4d f0          	mov    -0x10(%rbp),%rcx
    5ee6:	48 8b 45 f8          	mov    -0x8(%rbp),%rax
    5eea:	48 89 ce             	mov    %rcx,%rsi
    5eed:	48 89 c7             	mov    %rax,%rdi
    5ef0:	e8 9b c1 ff ff       	callq  2090 <reallocarray@plt>
    5ef5:	c9                   	leaveq 
    5ef6:	c3                   	retq   

0000000000005ef7 <locale_charset>:
    5ef7:	55                   	push   %rbp
    5ef8:	48 89 e5             	mov    %rsp,%rbp
    5efb:	48 83 ec 10          	sub    $0x10,%rsp
    5eff:	bf 0e 00 00 00       	mov    $0xe,%edi
    5f04:	e8 17 c3 ff ff       	callq  2220 <nl_langinfo@plt>
    5f09:	48 89 45 f8          	mov    %rax,-0x8(%rbp)
    5f0d:	48 83 7d f8 00       	cmpq   $0x0,-0x8(%rbp)
    5f12:	75 0b                	jne    5f1f <locale_charset+0x28>
    5f14:	48 8d 05 88 1d 00 00 	lea    0x1d88(%rip),%rax        # 7ca3 <version_etc_copyright+0x43>
    5f1b:	48 89 45 f8          	mov    %rax,-0x8(%rbp)
    5f1f:	48 8b 45 f8          	mov    -0x8(%rbp),%rax
    5f23:	0f b6 00             	movzbl (%rax),%eax
    5f26:	84 c0                	test   %al,%al
    5f28:	75 0b                	jne    5f35 <locale_charset+0x3e>
    5f2a:	48 8d 05 73 1d 00 00 	lea    0x1d73(%rip),%rax        # 7ca4 <version_etc_copyright+0x44>
    5f31:	48 89 45 f8          	mov    %rax,-0x8(%rbp)
    5f35:	48 8b 45 f8          	mov    -0x8(%rbp),%rax
    5f39:	c9                   	leaveq 
    5f3a:	c3                   	retq   

0000000000005f3b <rpl_mbrtowc>:
    5f3b:	55                   	push   %rbp
    5f3c:	48 89 e5             	mov    %rsp,%rbp
    5f3f:	48 83 ec 30          	sub    $0x30,%rsp
    5f43:	48 89 7d e8          	mov    %rdi,-0x18(%rbp)
    5f47:	48 89 75 e0          	mov    %rsi,-0x20(%rbp)
    5f4b:	48 89 55 d8          	mov    %rdx,-0x28(%rbp)
    5f4f:	48 89 4d d0          	mov    %rcx,-0x30(%rbp)
    5f53:	48 83 7d e8 00       	cmpq   $0x0,-0x18(%rbp)
    5f58:	75 08                	jne    5f62 <rpl_mbrtowc+0x27>
    5f5a:	48 8d 45 f0          	lea    -0x10(%rbp),%rax
    5f5e:	48 89 45 e8          	mov    %rax,-0x18(%rbp)
    5f62:	48 8b 4d d0          	mov    -0x30(%rbp),%rcx
    5f66:	48 8b 55 d8          	mov    -0x28(%rbp),%rdx
    5f6a:	48 8b 75 e0          	mov    -0x20(%rbp),%rsi
    5f6e:	48 8b 45 e8          	mov    -0x18(%rbp),%rax
    5f72:	48 89 c7             	mov    %rax,%rdi
    5f75:	e8 86 c1 ff ff       	callq  2100 <mbrtowc@plt>
    5f7a:	48 89 45 f8          	mov    %rax,-0x8(%rbp)
    5f7e:	48 83 7d f8 fd       	cmpq   $0xfffffffffffffffd,-0x8(%rbp)
    5f83:	76 33                	jbe    5fb8 <rpl_mbrtowc+0x7d>
    5f85:	48 83 7d d8 00       	cmpq   $0x0,-0x28(%rbp)
    5f8a:	74 2c                	je     5fb8 <rpl_mbrtowc+0x7d>
    5f8c:	bf 00 00 00 00       	mov    $0x0,%edi
    5f91:	e8 8d 02 00 00       	callq  6223 <hard_locale>
    5f96:	83 f0 01             	xor    $0x1,%eax
    5f99:	84 c0                	test   %al,%al
    5f9b:	74 1b                	je     5fb8 <rpl_mbrtowc+0x7d>
    5f9d:	48 8b 45 e0          	mov    -0x20(%rbp),%rax
    5fa1:	0f b6 00             	movzbl (%rax),%eax
    5fa4:	88 45 f7             	mov    %al,-0x9(%rbp)
    5fa7:	0f b6 55 f7          	movzbl -0x9(%rbp),%edx
    5fab:	48 8b 45 e8          	mov    -0x18(%rbp),%rax
    5faf:	89 10                	mov    %edx,(%rax)
    5fb1:	b8 01 00 00 00       	mov    $0x1,%eax
    5fb6:	eb 04                	jmp    5fbc <rpl_mbrtowc+0x81>
    5fb8:	48 8b 45 f8          	mov    -0x8(%rbp),%rax
    5fbc:	c9                   	leaveq 
    5fbd:	c3                   	retq   

0000000000005fbe <c_isalnum>:
    5fbe:	55                   	push   %rbp
    5fbf:	48 89 e5             	mov    %rsp,%rbp
    5fc2:	89 7d fc             	mov    %edi,-0x4(%rbp)
    5fc5:	83 7d fc 7a          	cmpl   $0x7a,-0x4(%rbp)
    5fc9:	7f 26                	jg     5ff1 <c_isalnum+0x33>
    5fcb:	83 7d fc 61          	cmpl   $0x61,-0x4(%rbp)
    5fcf:	7d 19                	jge    5fea <c_isalnum+0x2c>
    5fd1:	83 7d fc 39          	cmpl   $0x39,-0x4(%rbp)
    5fd5:	7f 08                	jg     5fdf <c_isalnum+0x21>
    5fd7:	83 7d fc 30          	cmpl   $0x30,-0x4(%rbp)
    5fdb:	7d 0d                	jge    5fea <c_isalnum+0x2c>
    5fdd:	eb 12                	jmp    5ff1 <c_isalnum+0x33>
    5fdf:	8b 45 fc             	mov    -0x4(%rbp),%eax
    5fe2:	83 e8 41             	sub    $0x41,%eax
    5fe5:	83 f8 19             	cmp    $0x19,%eax
    5fe8:	77 07                	ja     5ff1 <c_isalnum+0x33>
    5fea:	b8 01 00 00 00       	mov    $0x1,%eax
    5fef:	eb 05                	jmp    5ff6 <c_isalnum+0x38>
    5ff1:	b8 00 00 00 00       	mov    $0x0,%eax
    5ff6:	5d                   	pop    %rbp
    5ff7:	c3                   	retq   

0000000000005ff8 <c_isalpha>:
    5ff8:	55                   	push   %rbp
    5ff9:	48 89 e5             	mov    %rsp,%rbp
    5ffc:	89 7d fc             	mov    %edi,-0x4(%rbp)
    5fff:	83 7d fc 5a          	cmpl   $0x5a,-0x4(%rbp)
    6003:	7f 08                	jg     600d <c_isalpha+0x15>
    6005:	83 7d fc 41          	cmpl   $0x41,-0x4(%rbp)
    6009:	7d 0d                	jge    6018 <c_isalpha+0x20>
    600b:	eb 12                	jmp    601f <c_isalpha+0x27>
    600d:	8b 45 fc             	mov    -0x4(%rbp),%eax
    6010:	83 e8 61             	sub    $0x61,%eax
    6013:	83 f8 19             	cmp    $0x19,%eax
    6016:	77 07                	ja     601f <c_isalpha+0x27>
    6018:	b8 01 00 00 00       	mov    $0x1,%eax
    601d:	eb 05                	jmp    6024 <c_isalpha+0x2c>
    601f:	b8 00 00 00 00       	mov    $0x0,%eax
    6024:	5d                   	pop    %rbp
    6025:	c3                   	retq   

0000000000006026 <c_isascii>:
    6026:	55                   	push   %rbp
    6027:	48 89 e5             	mov    %rsp,%rbp
    602a:	89 7d fc             	mov    %edi,-0x4(%rbp)
    602d:	8b 45 fc             	mov    -0x4(%rbp),%eax
    6030:	83 f8 7f             	cmp    $0x7f,%eax
    6033:	77 07                	ja     603c <c_isascii+0x16>
    6035:	b8 01 00 00 00       	mov    $0x1,%eax
    603a:	eb 05                	jmp    6041 <c_isascii+0x1b>
    603c:	b8 00 00 00 00       	mov    $0x0,%eax
    6041:	5d                   	pop    %rbp
    6042:	c3                   	retq   

0000000000006043 <c_isblank>:
    6043:	55                   	push   %rbp
    6044:	48 89 e5             	mov    %rsp,%rbp
    6047:	89 7d fc             	mov    %edi,-0x4(%rbp)
    604a:	83 7d fc 20          	cmpl   $0x20,-0x4(%rbp)
    604e:	74 06                	je     6056 <c_isblank+0x13>
    6050:	83 7d fc 09          	cmpl   $0x9,-0x4(%rbp)
    6054:	75 07                	jne    605d <c_isblank+0x1a>
    6056:	b8 01 00 00 00       	mov    $0x1,%eax
    605b:	eb 05                	jmp    6062 <c_isblank+0x1f>
    605d:	b8 00 00 00 00       	mov    $0x0,%eax
