GAS LISTING /tmp/ccZ8N16b.s 			page 1


   1              		.file	"pkuapi.c"
   2              		.text
   3              	.Ltext0:
   4              		.globl	wrpkru
   5              		.type	wrpkru, @function
   6              	wrpkru:
   7              	.LFB6:
   8              		.file 1 "src/pkuapi.c"
   1:src/pkuapi.c  **** #include "../include/pkuapi.h"
   2:src/pkuapi.c  **** 
   3:src/pkuapi.c  **** int
   4:src/pkuapi.c  **** wrpkru(unsigned int pkru)
   5:src/pkuapi.c  **** {
   9              		.loc 1 5 1
  10              		.cfi_startproc
  11 0000 55       		pushq	%rbp
  12              		.cfi_def_cfa_offset 16
  13              		.cfi_offset 6, -16
  14 0001 4889E5   		movq	%rsp, %rbp
  15              		.cfi_def_cfa_register 6
  16 0004 897DEC   		movl	%edi, -20(%rbp)
   6:src/pkuapi.c  ****     unsigned int eax = pkru;
  17              		.loc 1 6 18
  18 0007 8B45EC   		movl	-20(%rbp), %eax
  19 000a 8945FC   		movl	%eax, -4(%rbp)
   7:src/pkuapi.c  ****     unsigned int ecx = 0;
  20              		.loc 1 7 18
  21 000d C745F800 		movl	$0, -8(%rbp)
  21      000000
   8:src/pkuapi.c  ****     unsigned int edx = 0;
  22              		.loc 1 8 18
  23 0014 C745F400 		movl	$0, -12(%rbp)
  23      000000
   9:src/pkuapi.c  **** 
  10:src/pkuapi.c  ****     asm volatile(".byte 0x0f,0x01,0xef\n\t"
  24              		.loc 1 10 5
  25 001b 8B45FC   		movl	-4(%rbp), %eax
  26 001e 8B4DF8   		movl	-8(%rbp), %ecx
  27 0021 8B55F4   		movl	-12(%rbp), %edx
  28              	#APP
  29              	# 10 "src/pkuapi.c" 1
  11              	                 : : "a" (eax), "c" (ecx), "d" (edx));
  12              	    return 0;
  30              		.byte 0x0f,0x01,0xef
  31              		
  32              	# 0 "" 2
  33              		.loc 1 12 12
  34              	#NO_APP
  35 0027 B8000000 		movl	$0, %eax
  35      00
  13:src/pkuapi.c  **** }
  36              		.loc 1 13 1
  37 002c 5D       		popq	%rbp
  38              		.cfi_def_cfa 7, 8
  39 002d C3       		ret
  40              		.cfi_endproc
  41              	.LFE6:
GAS LISTING /tmp/ccZ8N16b.s 			page 2


  42              		.size	wrpkru, .-wrpkru
  43              		.globl	pkey_set
  44              		.type	pkey_set, @function
  45              	pkey_set:
  46              	.LFB7:
  14:src/pkuapi.c  **** 
  15:src/pkuapi.c  **** int
  16:src/pkuapi.c  **** pkey_set(int pkey, unsigned long rights, unsigned long flags)
  17:src/pkuapi.c  **** {
  47              		.loc 1 17 1
  48              		.cfi_startproc
  49 002e 55       		pushq	%rbp
  50              		.cfi_def_cfa_offset 16
  51              		.cfi_offset 6, -16
  52 002f 4889E5   		movq	%rsp, %rbp
  53              		.cfi_def_cfa_register 6
  54 0032 4883EC30 		subq	$48, %rsp
  55 0036 897DEC   		movl	%edi, -20(%rbp)
  56 0039 488975E0 		movq	%rsi, -32(%rbp)
  57 003d 488955D8 		movq	%rdx, -40(%rbp)
  18:src/pkuapi.c  ****     unsigned int pkru = (rights << (2 * pkey));
  58              		.loc 1 18 39
  59 0041 8B45EC   		movl	-20(%rbp), %eax
  60 0044 01C0     		addl	%eax, %eax
  61              		.loc 1 18 33
  62 0046 488B55E0 		movq	-32(%rbp), %rdx
  63 004a 89C1     		movl	%eax, %ecx
  64 004c 48D3E2   		salq	%cl, %rdx
  65 004f 4889D0   		movq	%rdx, %rax
  66              		.loc 1 18 18
  67 0052 8945FC   		movl	%eax, -4(%rbp)
  19:src/pkuapi.c  ****     return wrpkru(pkru);
  68              		.loc 1 19 12
  69 0055 8B45FC   		movl	-4(%rbp), %eax
  70 0058 89C7     		movl	%eax, %edi
  71 005a E8000000 		call	wrpkru@PLT
  71      00
  20:src/pkuapi.c  **** }
  72              		.loc 1 20 1
  73 005f C9       		leave
  74              		.cfi_def_cfa 7, 8
  75 0060 C3       		ret
  76              		.cfi_endproc
  77              	.LFE7:
  78              		.size	pkey_set, .-pkey_set
  79              		.globl	pkey_mprotect
  80              		.type	pkey_mprotect, @function
  81              	pkey_mprotect:
  82              	.LFB8:
  21:src/pkuapi.c  **** 
  22:src/pkuapi.c  **** int
  23:src/pkuapi.c  **** pkey_mprotect(void *ptr, size_t size, unsigned long orig_prot,
  24:src/pkuapi.c  ****                 unsigned long pkey)
  25:src/pkuapi.c  **** {
  83              		.loc 1 25 1
  84              		.cfi_startproc
  85 0061 55       		pushq	%rbp
GAS LISTING /tmp/ccZ8N16b.s 			page 3


  86              		.cfi_def_cfa_offset 16
  87              		.cfi_offset 6, -16
  88 0062 4889E5   		movq	%rsp, %rbp
  89              		.cfi_def_cfa_register 6
  90 0065 4883EC20 		subq	$32, %rsp
  91 0069 48897DF8 		movq	%rdi, -8(%rbp)
  92 006d 488975F0 		movq	%rsi, -16(%rbp)
  93 0071 488955E8 		movq	%rdx, -24(%rbp)
  94 0075 48894DE0 		movq	%rcx, -32(%rbp)
  26:src/pkuapi.c  ****     return syscall(SYS_pkey_mprotect, ptr, size, orig_prot, pkey);
  95              		.loc 1 26 12
  96 0079 488B75E0 		movq	-32(%rbp), %rsi
  97 007d 488B4DE8 		movq	-24(%rbp), %rcx
  98 0081 488B55F0 		movq	-16(%rbp), %rdx
  99 0085 488B45F8 		movq	-8(%rbp), %rax
 100 0089 4989F0   		movq	%rsi, %r8
 101 008c 4889C6   		movq	%rax, %rsi
 102 008f BF490100 		movl	$329, %edi
 102      00
 103 0094 B8000000 		movl	$0, %eax
 103      00
 104 0099 E8000000 		call	syscall@PLT
 104      00
  27:src/pkuapi.c  **** }
 105              		.loc 1 27 1
 106 009e C9       		leave
 107              		.cfi_def_cfa 7, 8
 108 009f C3       		ret
 109              		.cfi_endproc
 110              	.LFE8:
 111              		.size	pkey_mprotect, .-pkey_mprotect
 112              		.globl	pkey_alloc
 113              		.type	pkey_alloc, @function
 114              	pkey_alloc:
 115              	.LFB9:
  28:src/pkuapi.c  **** 
  29:src/pkuapi.c  **** int
  30:src/pkuapi.c  **** pkey_alloc(void)
  31:src/pkuapi.c  **** {
 116              		.loc 1 31 1
 117              		.cfi_startproc
 118 00a0 55       		pushq	%rbp
 119              		.cfi_def_cfa_offset 16
 120              		.cfi_offset 6, -16
 121 00a1 4889E5   		movq	%rsp, %rbp
 122              		.cfi_def_cfa_register 6
  32:src/pkuapi.c  ****     return syscall(SYS_pkey_alloc, 0, 0);
 123              		.loc 1 32 12
 124 00a4 BA000000 		movl	$0, %edx
 124      00
 125 00a9 BE000000 		movl	$0, %esi
 125      00
 126 00ae BF4A0100 		movl	$330, %edi
 126      00
 127 00b3 B8000000 		movl	$0, %eax
 127      00
 128 00b8 E8000000 		call	syscall@PLT
GAS LISTING /tmp/ccZ8N16b.s 			page 4


 128      00
  33:src/pkuapi.c  **** }
 129              		.loc 1 33 1
 130 00bd 5D       		popq	%rbp
 131              		.cfi_def_cfa 7, 8
 132 00be C3       		ret
 133              		.cfi_endproc
 134              	.LFE9:
 135              		.size	pkey_alloc, .-pkey_alloc
 136              		.globl	pkey_free
 137              		.type	pkey_free, @function
 138              	pkey_free:
 139              	.LFB10:
  34:src/pkuapi.c  **** 
  35:src/pkuapi.c  **** int
  36:src/pkuapi.c  **** pkey_free(unsigned long pkey)
  37:src/pkuapi.c  **** {
 140              		.loc 1 37 1
 141              		.cfi_startproc
 142 00bf 55       		pushq	%rbp
 143              		.cfi_def_cfa_offset 16
 144              		.cfi_offset 6, -16
 145 00c0 4889E5   		movq	%rsp, %rbp
 146              		.cfi_def_cfa_register 6
 147 00c3 4883EC10 		subq	$16, %rsp
 148 00c7 48897DF8 		movq	%rdi, -8(%rbp)
  38:src/pkuapi.c  ****     return syscall(SYS_pkey_free, pkey);
 149              		.loc 1 38 12
 150 00cb 488B45F8 		movq	-8(%rbp), %rax
 151 00cf 4889C6   		movq	%rax, %rsi
 152 00d2 BF4B0100 		movl	$331, %edi
 152      00
 153 00d7 B8000000 		movl	$0, %eax
 153      00
 154 00dc E8000000 		call	syscall@PLT
 154      00
  39:src/pkuapi.c  **** }
 155              		.loc 1 39 1
 156 00e1 C9       		leave
 157              		.cfi_def_cfa 7, 8
 158 00e2 C3       		ret
 159              		.cfi_endproc
 160              	.LFE10:
 161              		.size	pkey_free, .-pkey_free
 162              		.globl	pkey_disable_access
 163              		.type	pkey_disable_access, @function
 164              	pkey_disable_access:
 165              	.LFB11:
  40:src/pkuapi.c  **** 
  41:src/pkuapi.c  **** void pkey_disable_access()
  42:src/pkuapi.c  **** {
 166              		.loc 1 42 1
 167              		.cfi_startproc
 168 00e3 55       		pushq	%rbp
 169              		.cfi_def_cfa_offset 16
 170              		.cfi_offset 6, -16
 171 00e4 4889E5   		movq	%rsp, %rbp
GAS LISTING /tmp/ccZ8N16b.s 			page 5


 172              		.cfi_def_cfa_register 6
  43:src/pkuapi.c  ****     pkey_set(pkey, PKEY_DISABLE_ACCESS, 0);
 173              		.loc 1 43 5
 174 00e7 488B0500 		movq	pkey@GOTPCREL(%rip), %rax
 174      000000
 175 00ee 8B00     		movl	(%rax), %eax
 176 00f0 BA000000 		movl	$0, %edx
 176      00
 177 00f5 BE010000 		movl	$1, %esi
 177      00
 178 00fa 89C7     		movl	%eax, %edi
 179 00fc E8000000 		call	pkey_set@PLT
 179      00
  44:src/pkuapi.c  ****     //pkey_set(pkey, PKEY_DISABLE_WRITE, 0);
  45:src/pkuapi.c  **** }
 180              		.loc 1 45 1
 181 0101 90       		nop
 182 0102 5D       		popq	%rbp
 183              		.cfi_def_cfa 7, 8
 184 0103 C3       		ret
 185              		.cfi_endproc
 186              	.LFE11:
 187              		.size	pkey_disable_access, .-pkey_disable_access
 188              		.globl	pkey_all_access
 189              		.type	pkey_all_access, @function
 190              	pkey_all_access:
 191              	.LFB12:
  46:src/pkuapi.c  **** void pkey_all_access()
  47:src/pkuapi.c  **** {
 192              		.loc 1 47 1
 193              		.cfi_startproc
 194 0104 55       		pushq	%rbp
 195              		.cfi_def_cfa_offset 16
 196              		.cfi_offset 6, -16
 197 0105 4889E5   		movq	%rsp, %rbp
 198              		.cfi_def_cfa_register 6
  48:src/pkuapi.c  ****     pkey_set(pkey, PKEY_ALL_ACCESS, 0);
 199              		.loc 1 48 5
 200 0108 488B0500 		movq	pkey@GOTPCREL(%rip), %rax
 200      000000
 201 010f 8B00     		movl	(%rax), %eax
 202 0111 BA000000 		movl	$0, %edx
 202      00
 203 0116 BE000000 		movl	$0, %esi
 203      00
 204 011b 89C7     		movl	%eax, %edi
 205 011d E8000000 		call	pkey_set@PLT
 205      00
  49:src/pkuapi.c  **** }...
 206              		.loc 1 49 1
 207 0122 90       		nop
 208 0123 5D       		popq	%rbp
 209              		.cfi_def_cfa 7, 8
 210 0124 C3       		ret
 211              		.cfi_endproc
 212              	.LFE12:
 213              		.size	pkey_all_access, .-pkey_all_access
GAS LISTING /tmp/ccZ8N16b.s 			page 6


 214              	.Letext0:
 215              		.file 2 "/usr/lib/gcc/x86_64-linux-gnu/10/include/stddef.h"
 216              		.file 3 "src/../include/pkuapi.h"
 811              		.section	.note.GNU-stack,"",@progbits
GAS LISTING /tmp/ccZ8N16b.s 			page 19

