
epoll.out:     file format elf64-x86-64


Disassembly of section .init:

0000000000001000 <_init>:
    1000:	48 83 ec 08          	sub    $0x8,%rsp
    1004:	48 8b 05 d5 3f 00 00 	mov    0x3fd5(%rip),%rax        # 4fe0 <__gmon_start__>
    100b:	48 85 c0             	test   %rax,%rax
    100e:	74 02                	je     1012 <_init+0x12>
    1010:	ff d0                	callq  *%rax
    1012:	48 83 c4 08          	add    $0x8,%rsp
    1016:	c3                   	retq   

Disassembly of section .plt:

0000000000001020 <.plt>:
    1020:	ff 35 e2 3f 00 00    	pushq  0x3fe2(%rip)        # 5008 <_GLOBAL_OFFSET_TABLE_+0x8>
    1026:	ff 25 e4 3f 00 00    	jmpq   *0x3fe4(%rip)        # 5010 <_GLOBAL_OFFSET_TABLE_+0x10>
    102c:	0f 1f 40 00          	nopl   0x0(%rax)

0000000000001030 <abort@plt>:
    1030:	ff 25 e2 3f 00 00    	jmpq   *0x3fe2(%rip)        # 5018 <abort@GLIBC_2.2.5>
    1036:	68 00 00 00 00       	pushq  $0x0
    103b:	e9 e0 ff ff ff       	jmpq   1020 <.plt>

0000000000001040 <__errno_location@plt>:
    1040:	ff 25 da 3f 00 00    	jmpq   *0x3fda(%rip)        # 5020 <__errno_location@GLIBC_2.2.5>
    1046:	68 01 00 00 00       	pushq  $0x1
    104b:	e9 d0 ff ff ff       	jmpq   1020 <.plt>

0000000000001050 <puts@plt>:
    1050:	ff 25 d2 3f 00 00    	jmpq   *0x3fd2(%rip)        # 5028 <puts@GLIBC_2.2.5>
    1056:	68 02 00 00 00       	pushq  $0x2
    105b:	e9 c0 ff ff ff       	jmpq   1020 <.plt>

0000000000001060 <setsockopt@plt>:
    1060:	ff 25 ca 3f 00 00    	jmpq   *0x3fca(%rip)        # 5030 <setsockopt@GLIBC_2.2.5>
    1066:	68 03 00 00 00       	pushq  $0x3
    106b:	e9 b0 ff ff ff       	jmpq   1020 <.plt>

0000000000001070 <fcntl@plt>:
    1070:	ff 25 c2 3f 00 00    	jmpq   *0x3fc2(%rip)        # 5038 <fcntl@GLIBC_2.2.5>
    1076:	68 04 00 00 00       	pushq  $0x4
    107b:	e9 a0 ff ff ff       	jmpq   1020 <.plt>

0000000000001080 <printf@plt>:
    1080:	ff 25 ba 3f 00 00    	jmpq   *0x3fba(%rip)        # 5040 <printf@GLIBC_2.2.5>
    1086:	68 05 00 00 00       	pushq  $0x5
    108b:	e9 90 ff ff ff       	jmpq   1020 <.plt>

0000000000001090 <close@plt>:
    1090:	ff 25 b2 3f 00 00    	jmpq   *0x3fb2(%rip)        # 5048 <close@GLIBC_2.2.5>
    1096:	68 06 00 00 00       	pushq  $0x6
    109b:	e9 80 ff ff ff       	jmpq   1020 <.plt>

00000000000010a0 <getnameinfo@plt>:
    10a0:	ff 25 aa 3f 00 00    	jmpq   *0x3faa(%rip)        # 5050 <getnameinfo@GLIBC_2.2.5>
    10a6:	68 07 00 00 00       	pushq  $0x7
    10ab:	e9 70 ff ff ff       	jmpq   1020 <.plt>

00000000000010b0 <epoll_ctl@plt>:
    10b0:	ff 25 a2 3f 00 00    	jmpq   *0x3fa2(%rip)        # 5058 <epoll_ctl@GLIBC_2.3.2>
    10b6:	68 08 00 00 00       	pushq  $0x8
    10bb:	e9 60 ff ff ff       	jmpq   1020 <.plt>

00000000000010c0 <read@plt>:
    10c0:	ff 25 9a 3f 00 00    	jmpq   *0x3f9a(%rip)        # 5060 <read@GLIBC_2.2.5>
    10c6:	68 09 00 00 00       	pushq  $0x9
    10cb:	e9 50 ff ff ff       	jmpq   1020 <.plt>

00000000000010d0 <calloc@plt>:
    10d0:	ff 25 92 3f 00 00    	jmpq   *0x3f92(%rip)        # 5068 <calloc@GLIBC_2.2.5>
    10d6:	68 0a 00 00 00       	pushq  $0xa
    10db:	e9 40 ff ff ff       	jmpq   1020 <.plt>

00000000000010e0 <fprintf@plt>:
    10e0:	ff 25 8a 3f 00 00    	jmpq   *0x3f8a(%rip)        # 5070 <fprintf@GLIBC_2.2.5>
    10e6:	68 0b 00 00 00       	pushq  $0xb
    10eb:	e9 30 ff ff ff       	jmpq   1020 <.plt>

00000000000010f0 <fflush@plt>:
    10f0:	ff 25 82 3f 00 00    	jmpq   *0x3f82(%rip)        # 5078 <fflush@GLIBC_2.2.5>
    10f6:	68 0c 00 00 00       	pushq  $0xc
    10fb:	e9 20 ff ff ff       	jmpq   1020 <.plt>

0000000000001100 <__cyg_profile_func_exit@plt>:
    1100:	ff 25 7a 3f 00 00    	jmpq   *0x3f7a(%rip)        # 5080 <__cyg_profile_func_exit@GLIBC_2.2.5>
    1106:	68 0d 00 00 00       	pushq  $0xd
    110b:	e9 10 ff ff ff       	jmpq   1020 <.plt>

0000000000001110 <listen@plt>:
    1110:	ff 25 72 3f 00 00    	jmpq   *0x3f72(%rip)        # 5088 <listen@GLIBC_2.2.5>
    1116:	68 0e 00 00 00       	pushq  $0xe
    111b:	e9 00 ff ff ff       	jmpq   1020 <.plt>

0000000000001120 <epoll_wait@plt>:
    1120:	ff 25 6a 3f 00 00    	jmpq   *0x3f6a(%rip)        # 5090 <epoll_wait@GLIBC_2.3.2>
    1126:	68 0f 00 00 00       	pushq  $0xf
    112b:	e9 f0 fe ff ff       	jmpq   1020 <.plt>

0000000000001130 <bind@plt>:
    1130:	ff 25 62 3f 00 00    	jmpq   *0x3f62(%rip)        # 5098 <bind@GLIBC_2.2.5>
    1136:	68 10 00 00 00       	pushq  $0x10
    113b:	e9 e0 fe ff ff       	jmpq   1020 <.plt>

0000000000001140 <perror@plt>:
    1140:	ff 25 5a 3f 00 00    	jmpq   *0x3f5a(%rip)        # 50a0 <perror@GLIBC_2.2.5>
    1146:	68 11 00 00 00       	pushq  $0x11
    114b:	e9 d0 fe ff ff       	jmpq   1020 <.plt>

0000000000001150 <accept@plt>:
    1150:	ff 25 52 3f 00 00    	jmpq   *0x3f52(%rip)        # 50a8 <accept@GLIBC_2.2.5>
    1156:	68 12 00 00 00       	pushq  $0x12
    115b:	e9 c0 fe ff ff       	jmpq   1020 <.plt>

0000000000001160 <__cyg_profile_func_enter@plt>:
    1160:	ff 25 4a 3f 00 00    	jmpq   *0x3f4a(%rip)        # 50b0 <__cyg_profile_func_enter@GLIBC_2.2.5>
    1166:	68 13 00 00 00       	pushq  $0x13
    116b:	e9 b0 fe ff ff       	jmpq   1020 <.plt>

0000000000001170 <exit@plt>:
    1170:	ff 25 42 3f 00 00    	jmpq   *0x3f42(%rip)        # 50b8 <exit@GLIBC_2.2.5>
    1176:	68 14 00 00 00       	pushq  $0x14
    117b:	e9 a0 fe ff ff       	jmpq   1020 <.plt>

0000000000001180 <epoll_create1@plt>:
    1180:	ff 25 3a 3f 00 00    	jmpq   *0x3f3a(%rip)        # 50c0 <epoll_create1@GLIBC_2.9>
    1186:	68 15 00 00 00       	pushq  $0x15
    118b:	e9 90 fe ff ff       	jmpq   1020 <.plt>

0000000000001190 <socket@plt>:
    1190:	ff 25 32 3f 00 00    	jmpq   *0x3f32(%rip)        # 50c8 <socket@GLIBC_2.2.5>
    1196:	68 16 00 00 00       	pushq  $0x16
    119b:	e9 80 fe ff ff       	jmpq   1020 <.plt>

Disassembly of section .plt.got:

00000000000011a0 <__cxa_finalize@plt>:
    11a0:	ff 25 4a 3e 00 00    	jmpq   *0x3e4a(%rip)        # 4ff0 <__cxa_finalize@GLIBC_2.2.5>
    11a6:	66 90                	xchg   %ax,%ax

Disassembly of section .text:

00000000000011b0 <_start>:
    11b0:	31 ed                	xor    %ebp,%ebp
    11b2:	49 89 d1             	mov    %rdx,%r9
    11b5:	5e                   	pop    %rsi
    11b6:	48 89 e2             	mov    %rsp,%rdx
    11b9:	48 83 e4 f0          	and    $0xfffffffffffffff0,%rsp
    11bd:	50                   	push   %rax
    11be:	54                   	push   %rsp
    11bf:	4c 8d 05 0a 07 00 00 	lea    0x70a(%rip),%r8        # 18d0 <__libc_csu_fini>
    11c6:	48 8d 0d a3 06 00 00 	lea    0x6a3(%rip),%rcx        # 1870 <__libc_csu_init>
    11cd:	48 8d 3d f5 03 00 00 	lea    0x3f5(%rip),%rdi        # 15c9 <main>
    11d4:	ff 15 f6 3d 00 00    	callq  *0x3df6(%rip)        # 4fd0 <__libc_start_main@GLIBC_2.2.5>
    11da:	f4                   	hlt    
    11db:	0f 1f 44 00 00       	nopl   0x0(%rax,%rax,1)

00000000000011e0 <deregister_tm_clones>:
    11e0:	48 8d 3d f9 3e 00 00 	lea    0x3ef9(%rip),%rdi        # 50e0 <__TMC_END__>
    11e7:	48 8d 05 f2 3e 00 00 	lea    0x3ef2(%rip),%rax        # 50e0 <__TMC_END__>
    11ee:	48 39 f8             	cmp    %rdi,%rax
    11f1:	74 15                	je     1208 <deregister_tm_clones+0x28>
    11f3:	48 8b 05 be 3d 00 00 	mov    0x3dbe(%rip),%rax        # 4fb8 <_ITM_deregisterTMCloneTable>
    11fa:	48 85 c0             	test   %rax,%rax
    11fd:	74 09                	je     1208 <deregister_tm_clones+0x28>
    11ff:	ff e0                	jmpq   *%rax
    1201:	0f 1f 80 00 00 00 00 	nopl   0x0(%rax)
    1208:	c3                   	retq   
    1209:	0f 1f 80 00 00 00 00 	nopl   0x0(%rax)

0000000000001210 <register_tm_clones>:
    1210:	48 8d 3d c9 3e 00 00 	lea    0x3ec9(%rip),%rdi        # 50e0 <__TMC_END__>
    1217:	48 8d 35 c2 3e 00 00 	lea    0x3ec2(%rip),%rsi        # 50e0 <__TMC_END__>
    121e:	48 29 fe             	sub    %rdi,%rsi
    1221:	48 c1 fe 03          	sar    $0x3,%rsi
    1225:	48 89 f0             	mov    %rsi,%rax
    1228:	48 c1 e8 3f          	shr    $0x3f,%rax
    122c:	48 01 c6             	add    %rax,%rsi
    122f:	48 d1 fe             	sar    %rsi
    1232:	74 14                	je     1248 <register_tm_clones+0x38>
    1234:	48 8b 05 ad 3d 00 00 	mov    0x3dad(%rip),%rax        # 4fe8 <_ITM_registerTMCloneTable>
    123b:	48 85 c0             	test   %rax,%rax
    123e:	74 08                	je     1248 <register_tm_clones+0x38>
    1240:	ff e0                	jmpq   *%rax
    1242:	66 0f 1f 44 00 00    	nopw   0x0(%rax,%rax,1)
    1248:	c3                   	retq   
    1249:	0f 1f 80 00 00 00 00 	nopl   0x0(%rax)

0000000000001250 <__do_global_dtors_aux>:
    1250:	80 3d 89 3e 00 00 00 	cmpb   $0x0,0x3e89(%rip)        # 50e0 <__TMC_END__>
    1257:	75 2f                	jne    1288 <__do_global_dtors_aux+0x38>
    1259:	55                   	push   %rbp
    125a:	48 83 3d 8e 3d 00 00 	cmpq   $0x0,0x3d8e(%rip)        # 4ff0 <__cxa_finalize@GLIBC_2.2.5>
    1261:	00 
    1262:	48 89 e5             	mov    %rsp,%rbp
    1265:	74 0c                	je     1273 <__do_global_dtors_aux+0x23>
    1267:	48 8b 3d 6a 3e 00 00 	mov    0x3e6a(%rip),%rdi        # 50d8 <__dso_handle>
    126e:	e8 2d ff ff ff       	callq  11a0 <__cxa_finalize@plt>
    1273:	e8 68 ff ff ff       	callq  11e0 <deregister_tm_clones>
    1278:	c6 05 61 3e 00 00 01 	movb   $0x1,0x3e61(%rip)        # 50e0 <__TMC_END__>
    127f:	5d                   	pop    %rbp
    1280:	c3                   	retq   
    1281:	0f 1f 80 00 00 00 00 	nopl   0x0(%rax)
    1288:	c3                   	retq   
    1289:	0f 1f 80 00 00 00 00 	nopl   0x0(%rax)

0000000000001290 <frame_dummy>:
    1290:	e9 7b ff ff ff       	jmpq   1210 <register_tm_clones>

0000000000001295 <make_socket_non_blocking>:
    1295:	55                   	push   %rbp
    1296:	53                   	push   %rbx
    1297:	48 83 ec 08          	sub    $0x8,%rsp
    129b:	89 fd                	mov    %edi,%ebp
    129d:	89 fe                	mov    %edi,%esi
    129f:	48 8d 3d 5e 1d 00 00 	lea    0x1d5e(%rip),%rdi        # 3004 <_IO_stdin_used+0x4>
    12a6:	b8 00 00 00 00       	mov    $0x0,%eax
    12ab:	e8 d0 fd ff ff       	callq  1080 <printf@plt>
    12b0:	ba 00 00 00 00       	mov    $0x0,%edx
    12b5:	be 03 00 00 00       	mov    $0x3,%esi
    12ba:	89 ef                	mov    %ebp,%edi
    12bc:	b8 00 00 00 00       	mov    $0x0,%eax
    12c1:	e8 aa fd ff ff       	callq  1070 <fcntl@plt>
    12c6:	89 c3                	mov    %eax,%ebx
    12c8:	83 f8 ff             	cmp    $0xffffffff,%eax
    12cb:	74 2b                	je     12f8 <make_socket_non_blocking+0x63>
    12cd:	89 c2                	mov    %eax,%edx
    12cf:	80 ce 08             	or     $0x8,%dh
    12d2:	be 04 00 00 00       	mov    $0x4,%esi
    12d7:	89 ef                	mov    %ebp,%edi
    12d9:	b8 00 00 00 00       	mov    $0x0,%eax
    12de:	e8 8d fd ff ff       	callq  1070 <fcntl@plt>
    12e3:	89 c3                	mov    %eax,%ebx
    12e5:	83 f8 ff             	cmp    $0xffffffff,%eax
    12e8:	74 1c                	je     1306 <make_socket_non_blocking+0x71>
    12ea:	bb 00 00 00 00       	mov    $0x0,%ebx
    12ef:	89 d8                	mov    %ebx,%eax
    12f1:	48 83 c4 08          	add    $0x8,%rsp
    12f5:	5b                   	pop    %rbx
    12f6:	5d                   	pop    %rbp
    12f7:	c3                   	retq   
    12f8:	48 8d 3d 14 1d 00 00 	lea    0x1d14(%rip),%rdi        # 3013 <_IO_stdin_used+0x13>
    12ff:	e8 3c fe ff ff       	callq  1140 <perror@plt>
    1304:	eb e9                	jmp    12ef <make_socket_non_blocking+0x5a>
    1306:	48 8d 3d 06 1d 00 00 	lea    0x1d06(%rip),%rdi        # 3013 <_IO_stdin_used+0x13>
    130d:	e8 2e fe ff ff       	callq  1140 <perror@plt>
    1312:	eb db                	jmp    12ef <make_socket_non_blocking+0x5a>

0000000000001314 <process_more_tainted_data>:
    1314:	55                   	push   %rbp
    1315:	53                   	push   %rbx
    1316:	48 83 ec 08          	sub    $0x8,%rsp
    131a:	48 89 fd             	mov    %rdi,%rbp
    131d:	48 8b 74 24 18       	mov    0x18(%rsp),%rsi
    1322:	48 8d 1d eb ff ff ff 	lea    -0x15(%rip),%rbx        # 1314 <process_more_tainted_data>
    1329:	48 89 df             	mov    %rbx,%rdi
    132c:	e8 2f fe ff ff       	callq  1160 <__cyg_profile_func_enter@plt>
    1331:	48 89 ea             	mov    %rbp,%rdx
    1334:	48 8d 35 15 1f 00 00 	lea    0x1f15(%rip),%rsi        # 3250 <__func__.4499>
    133b:	48 8d 3d d7 1c 00 00 	lea    0x1cd7(%rip),%rdi        # 3019 <_IO_stdin_used+0x19>
    1342:	b8 00 00 00 00       	mov    $0x0,%eax
    1347:	e8 34 fd ff ff       	callq  1080 <printf@plt>
    134c:	48 8b 74 24 18       	mov    0x18(%rsp),%rsi
    1351:	48 89 df             	mov    %rbx,%rdi
    1354:	e8 a7 fd ff ff       	callq  1100 <__cyg_profile_func_exit@plt>
    1359:	48 83 c4 08          	add    $0x8,%rsp
    135d:	5b                   	pop    %rbx
    135e:	5d                   	pop    %rbp
    135f:	c3                   	retq   

0000000000001360 <process_new_data>:
    1360:	41 56                	push   %r14
    1362:	41 55                	push   %r13
    1364:	41 54                	push   %r12
    1366:	55                   	push   %rbp
    1367:	53                   	push   %rbx
    1368:	48 83 ec 10          	sub    $0x10,%rsp
    136c:	89 fd                	mov    %edi,%ebp
    136e:	48 8b 74 24 38       	mov    0x38(%rsp),%rsi
    1373:	48 8d 3d e6 ff ff ff 	lea    -0x1a(%rip),%rdi        # 1360 <process_new_data>
    137a:	e8 e1 fd ff ff       	callq  1160 <__cyg_profile_func_enter@plt>
    137f:	48 89 e3             	mov    %rsp,%rbx
    1382:	4c 8d 2d af 1c 00 00 	lea    0x1caf(%rip),%r13        # 3038 <_IO_stdin_used+0x38>
    1389:	4c 8d 25 b4 1c 00 00 	lea    0x1cb4(%rip),%r12        # 3044 <_IO_stdin_used+0x44>
    1390:	4c 8d 35 b4 1c 00 00 	lea    0x1cb4(%rip),%r14        # 304b <_IO_stdin_used+0x4b>
    1397:	eb 69                	jmp    1402 <process_new_data+0xa2>
    1399:	e8 a2 fc ff ff       	callq  1040 <__errno_location@plt>
    139e:	83 38 0b             	cmpl   $0xb,(%rax)
    13a1:	74 44                	je     13e7 <process_new_data+0x87>
    13a3:	48 8d 3d 89 1c 00 00 	lea    0x1c89(%rip),%rdi        # 3033 <_IO_stdin_used+0x33>
    13aa:	e8 91 fd ff ff       	callq  1140 <perror@plt>
    13af:	89 ee                	mov    %ebp,%esi
    13b1:	48 8d 3d 38 1d 00 00 	lea    0x1d38(%rip),%rdi        # 30f0 <_IO_stdin_used+0xf0>
    13b8:	b8 00 00 00 00       	mov    $0x0,%eax
    13bd:	e8 be fc ff ff       	callq  1080 <printf@plt>
    13c2:	89 ef                	mov    %ebp,%edi
    13c4:	e8 c7 fc ff ff       	callq  1090 <close@plt>
    13c9:	48 8b 74 24 38       	mov    0x38(%rsp),%rsi
    13ce:	48 8d 3d 8b ff ff ff 	lea    -0x75(%rip),%rdi        # 1360 <process_new_data>
    13d5:	e8 26 fd ff ff       	callq  1100 <__cyg_profile_func_exit@plt>
    13da:	48 83 c4 10          	add    $0x10,%rsp
    13de:	5b                   	pop    %rbx
    13df:	5d                   	pop    %rbp
    13e0:	41 5c                	pop    %r12
    13e2:	41 5d                	pop    %r13
    13e4:	41 5e                	pop    %r14
    13e6:	c3                   	retq   
    13e7:	48 8b 74 24 38       	mov    0x38(%rsp),%rsi
    13ec:	48 8d 3d 6d ff ff ff 	lea    -0x93(%rip),%rdi        # 1360 <process_new_data>
    13f3:	e8 08 fd ff ff       	callq  1100 <__cyg_profile_func_exit@plt>
    13f8:	eb e0                	jmp    13da <process_new_data+0x7a>
    13fa:	48 89 df             	mov    %rbx,%rdi
    13fd:	e8 12 ff ff ff       	callq  1314 <process_more_tainted_data>
    1402:	ba 0f 00 00 00       	mov    $0xf,%edx
    1407:	48 89 de             	mov    %rbx,%rsi
    140a:	89 ef                	mov    %ebp,%edi
    140c:	e8 af fc ff ff       	callq  10c0 <read@plt>
    1411:	48 85 c0             	test   %rax,%rax
    1414:	74 99                	je     13af <process_new_data+0x4f>
    1416:	48 83 f8 ff          	cmp    $0xffffffffffffffff,%rax
    141a:	0f 84 79 ff ff ff    	je     1399 <process_new_data+0x39>
    1420:	c6 44 04 ff 00       	movb   $0x0,-0x1(%rsp,%rax,1)
    1425:	48 89 de             	mov    %rbx,%rsi
    1428:	4c 89 ef             	mov    %r13,%rdi
    142b:	b8 00 00 00 00       	mov    $0x0,%eax
    1430:	e8 4b fc ff ff       	callq  1080 <printf@plt>
    1435:	b9 07 00 00 00       	mov    $0x7,%ecx
    143a:	48 89 de             	mov    %rbx,%rsi
    143d:	4c 89 e7             	mov    %r12,%rdi
    1440:	f3 a6                	repz cmpsb %es:(%rdi),%ds:(%rsi)
    1442:	0f 97 c0             	seta   %al
    1445:	1c 00                	sbb    $0x0,%al
    1447:	84 c0                	test   %al,%al
    1449:	74 af                	je     13fa <process_new_data+0x9a>
    144b:	b9 05 00 00 00       	mov    $0x5,%ecx
    1450:	48 89 de             	mov    %rbx,%rsi
    1453:	4c 89 f7             	mov    %r14,%rdi
    1456:	f3 a6                	repz cmpsb %es:(%rdi),%ds:(%rsi)
    1458:	0f 97 c0             	seta   %al
    145b:	1c 00                	sbb    $0x0,%al
    145d:	84 c0                	test   %al,%al
    145f:	75 a1                	jne    1402 <process_new_data+0xa2>
    1461:	bf 01 00 00 00       	mov    $0x1,%edi
    1466:	e8 05 fd ff ff       	callq  1170 <exit@plt>

000000000000146b <accept_and_add_new>:
    146b:	41 56                	push   %r14
    146d:	41 55                	push   %r13
    146f:	41 54                	push   %r12
    1471:	55                   	push   %rbp
    1472:	53                   	push   %rbx
    1473:	48 81 ec 50 04 00 00 	sub    $0x450,%rsp
    147a:	c7 84 24 2c 04 00 00 	movl   $0x10,0x42c(%rsp)
    1481:	10 00 00 00 
    1485:	41 b8 10 00 00 00    	mov    $0x10,%r8d
    148b:	b9 10 00 00 00       	mov    $0x10,%ecx
    1490:	8b 15 4e 3c 00 00    	mov    0x3c4e(%rip),%edx        # 50e4 <epoll_fd>
    1496:	8b 35 4c 3c 00 00    	mov    0x3c4c(%rip),%esi        # 50e8 <socket_fd>
    149c:	48 8d 3d 75 1c 00 00 	lea    0x1c75(%rip),%rdi        # 3118 <_IO_stdin_used+0x118>
    14a3:	b8 00 00 00 00       	mov    $0x0,%eax
    14a8:	e8 d3 fb ff ff       	callq  1080 <printf@plt>
    14ad:	4c 8d b4 24 2c 04 00 	lea    0x42c(%rsp),%r14
    14b4:	00 
    14b5:	48 8d ac 24 30 04 00 	lea    0x430(%rsp),%rbp
    14bc:	00 
    14bd:	49 89 e5             	mov    %rsp,%r13
    14c0:	4c 8d 64 24 20       	lea    0x20(%rsp),%r12
    14c5:	eb 60                	jmp    1527 <accept_and_add_new+0xbc>
    14c7:	4c 89 e9             	mov    %r13,%rcx
    14ca:	4c 89 e2             	mov    %r12,%rdx
    14cd:	89 de                	mov    %ebx,%esi
    14cf:	48 8d 3d 82 1c 00 00 	lea    0x1c82(%rip),%rdi        # 3158 <_IO_stdin_used+0x158>
    14d6:	e8 a5 fb ff ff       	callq  1080 <printf@plt>
    14db:	89 df                	mov    %ebx,%edi
    14dd:	e8 b3 fd ff ff       	callq  1295 <make_socket_non_blocking>
    14e2:	83 f8 ff             	cmp    $0xffffffff,%eax
    14e5:	0f 84 8b 00 00 00    	je     1576 <accept_and_add_new+0x10b>
    14eb:	89 9c 24 48 04 00 00 	mov    %ebx,0x448(%rsp)
    14f2:	c7 84 24 44 04 00 00 	movl   $0x80000001,0x444(%rsp)
    14f9:	01 00 00 80 
    14fd:	48 8d 8c 24 44 04 00 	lea    0x444(%rsp),%rcx
    1504:	00 
    1505:	89 da                	mov    %ebx,%edx
    1507:	be 01 00 00 00       	mov    $0x1,%esi
    150c:	8b 3d d2 3b 00 00    	mov    0x3bd2(%rip),%edi        # 50e4 <epoll_fd>
    1512:	e8 99 fb ff ff       	callq  10b0 <epoll_ctl@plt>
    1517:	83 f8 ff             	cmp    $0xffffffff,%eax
    151a:	74 5f                	je     157b <accept_and_add_new+0x110>
    151c:	c7 84 24 2c 04 00 00 	movl   $0x10,0x42c(%rsp)
    1523:	10 00 00 00 
    1527:	4c 89 f2             	mov    %r14,%rdx
    152a:	48 89 ee             	mov    %rbp,%rsi
    152d:	8b 3d b5 3b 00 00    	mov    0x3bb5(%rip),%edi        # 50e8 <socket_fd>
    1533:	e8 18 fc ff ff       	callq  1150 <accept@plt>
    1538:	89 c3                	mov    %eax,%ebx
    153a:	83 f8 ff             	cmp    $0xffffffff,%eax
    153d:	74 4d                	je     158c <accept_and_add_new+0x121>
    153f:	48 83 ec 08          	sub    $0x8,%rsp
    1543:	6a 01                	pushq  $0x1
    1545:	41 b9 20 00 00 00    	mov    $0x20,%r9d
    154b:	4d 89 e8             	mov    %r13,%r8
    154e:	b9 01 04 00 00       	mov    $0x401,%ecx
    1553:	4c 89 e2             	mov    %r12,%rdx
    1556:	8b b4 24 3c 04 00 00 	mov    0x43c(%rsp),%esi
    155d:	48 89 ef             	mov    %rbp,%rdi
    1560:	e8 3b fb ff ff       	callq  10a0 <getnameinfo@plt>
    1565:	48 83 c4 10          	add    $0x10,%rsp
    1569:	85 c0                	test   %eax,%eax
    156b:	0f 85 6a ff ff ff    	jne    14db <accept_and_add_new+0x70>
    1571:	e9 51 ff ff ff       	jmpq   14c7 <accept_and_add_new+0x5c>
    1576:	e8 b5 fa ff ff       	callq  1030 <abort@plt>
    157b:	48 8d 3d ce 1a 00 00 	lea    0x1ace(%rip),%rdi        # 3050 <_IO_stdin_used+0x50>
    1582:	e8 b9 fb ff ff       	callq  1140 <perror@plt>
    1587:	e8 a4 fa ff ff       	callq  1030 <abort@plt>
    158c:	e8 af fa ff ff       	callq  1040 <__errno_location@plt>
    1591:	83 38 0b             	cmpl   $0xb,(%rax)
    1594:	75 10                	jne    15a6 <accept_and_add_new+0x13b>
    1596:	48 81 c4 50 04 00 00 	add    $0x450,%rsp
    159d:	5b                   	pop    %rbx
    159e:	5d                   	pop    %rbp
    159f:	41 5c                	pop    %r12
    15a1:	41 5d                	pop    %r13
    15a3:	41 5e                	pop    %r14
    15a5:	c3                   	retq   
    15a6:	48 8d 3d ad 1a 00 00 	lea    0x1aad(%rip),%rdi        # 305a <_IO_stdin_used+0x5a>
    15ad:	e8 8e fb ff ff       	callq  1140 <perror@plt>
    15b2:	eb e2                	jmp    1596 <accept_and_add_new+0x12b>

00000000000015b4 <dynamically_unreachable>:
    15b4:	48 83 ec 08          	sub    $0x8,%rsp
    15b8:	48 8d 3d d9 1b 00 00 	lea    0x1bd9(%rip),%rdi        # 3198 <_IO_stdin_used+0x198>
    15bf:	e8 8c fa ff ff       	callq  1050 <puts@plt>
    15c4:	48 83 c4 08          	add    $0x8,%rsp
    15c8:	c3                   	retq   

00000000000015c9 <main>:
    15c9:	41 54                	push   %r12
    15cb:	55                   	push   %rbp
    15cc:	53                   	push   %rbx
    15cd:	48 83 ec 30          	sub    $0x30,%rsp
    15d1:	48 8b 15 00 3a 00 00 	mov    0x3a00(%rip),%rdx        # 4fd8 <__text_end@@Base+0x2fd8>
    15d8:	48 8b 35 e9 39 00 00 	mov    0x39e9(%rip),%rsi        # 4fc8 <__text_start@@Base+0x3e20>
    15df:	48 8d 3d ea 1b 00 00 	lea    0x1bea(%rip),%rdi        # 31d0 <_IO_stdin_used+0x1d0>
    15e6:	b8 00 00 00 00       	mov    $0x0,%eax
    15eb:	e8 90 fa ff ff       	callq  1080 <printf@plt>
    15f0:	be 0c 00 00 00       	mov    $0xc,%esi
    15f5:	48 8d 3d 65 1a 00 00 	lea    0x1a65(%rip),%rdi        # 3061 <_IO_stdin_used+0x61>
    15fc:	b8 00 00 00 00       	mov    $0x0,%eax
    1601:	e8 7a fa ff ff       	callq  1080 <printf@plt>
    1606:	c7 44 24 0c 01 00 00 	movl   $0x1,0xc(%rsp)
    160d:	00 
    160e:	ba 00 00 00 00       	mov    $0x0,%edx
    1613:	be 01 00 00 00       	mov    $0x1,%esi
    1618:	bf 02 00 00 00       	mov    $0x2,%edi
    161d:	e8 6e fb ff ff       	callq  1190 <socket@plt>
    1622:	89 05 c0 3a 00 00    	mov    %eax,0x3ac0(%rip)        # 50e8 <socket_fd>
    1628:	83 f8 ff             	cmp    $0xffffffff,%eax
    162b:	0f 84 15 01 00 00    	je     1746 <main+0x17d>
    1631:	89 c3                	mov    %eax,%ebx
    1633:	48 8d 4c 24 0c       	lea    0xc(%rsp),%rcx
    1638:	41 b8 04 00 00 00    	mov    $0x4,%r8d
    163e:	ba 02 00 00 00       	mov    $0x2,%edx
    1643:	be 01 00 00 00       	mov    $0x1,%esi
    1648:	89 c7                	mov    %eax,%edi
    164a:	e8 11 fa ff ff       	callq  1060 <setsockopt@plt>
    164f:	83 f8 ff             	cmp    $0xffffffff,%eax
    1652:	0f 84 04 01 00 00    	je     175c <main+0x193>
    1658:	66 c7 44 24 10 02 00 	movw   $0x2,0x10(%rsp)
    165f:	66 c7 44 24 12 13 88 	movw   $0x8813,0x12(%rsp)
    1666:	c7 44 24 14 00 00 00 	movl   $0x0,0x14(%rsp)
    166d:	00 
    166e:	48 8d 74 24 10       	lea    0x10(%rsp),%rsi
    1673:	48 c7 44 24 18 00 00 	movq   $0x0,0x18(%rsp)
    167a:	00 00 
    167c:	ba 10 00 00 00       	mov    $0x10,%edx
    1681:	89 df                	mov    %ebx,%edi
    1683:	e8 a8 fa ff ff       	callq  1130 <bind@plt>
    1688:	83 f8 ff             	cmp    $0xffffffff,%eax
    168b:	0f 84 e1 00 00 00    	je     1772 <main+0x1a9>
    1691:	89 df                	mov    %ebx,%edi
    1693:	e8 fd fb ff ff       	callq  1295 <make_socket_non_blocking>
    1698:	83 f8 ff             	cmp    $0xffffffff,%eax
    169b:	0f 84 e7 00 00 00    	je     1788 <main+0x1bf>
    16a1:	be 05 00 00 00       	mov    $0x5,%esi
    16a6:	8b 3d 3c 3a 00 00    	mov    0x3a3c(%rip),%edi        # 50e8 <socket_fd>
    16ac:	e8 5f fa ff ff       	callq  1110 <listen@plt>
    16b1:	83 f8 ff             	cmp    $0xffffffff,%eax
    16b4:	0f 84 d8 00 00 00    	je     1792 <main+0x1c9>
    16ba:	ba 88 13 00 00       	mov    $0x1388,%edx
    16bf:	be 88 13 00 00       	mov    $0x1388,%esi
    16c4:	48 8d 3d 2d 1b 00 00 	lea    0x1b2d(%rip),%rdi        # 31f8 <_IO_stdin_used+0x1f8>
    16cb:	b8 00 00 00 00       	mov    $0x0,%eax
    16d0:	e8 ab f9 ff ff       	callq  1080 <printf@plt>
    16d5:	48 8b 05 e4 38 00 00 	mov    0x38e4(%rip),%rax        # 4fc0 <stdout@GLIBC_2.2.5>
    16dc:	48 8b 38             	mov    (%rax),%rdi
    16df:	e8 0c fa ff ff       	callq  10f0 <fflush@plt>
    16e4:	bf 00 00 00 00       	mov    $0x0,%edi
    16e9:	e8 92 fa ff ff       	callq  1180 <epoll_create1@plt>
    16ee:	89 c5                	mov    %eax,%ebp
    16f0:	89 05 ee 39 00 00    	mov    %eax,0x39ee(%rip)        # 50e4 <epoll_fd>
    16f6:	83 f8 ff             	cmp    $0xffffffff,%eax
    16f9:	0f 84 a9 00 00 00    	je     17a8 <main+0x1df>
    16ff:	44 8b 25 e2 39 00 00 	mov    0x39e2(%rip),%r12d        # 50e8 <socket_fd>
    1706:	44 89 64 24 28       	mov    %r12d,0x28(%rsp)
    170b:	c7 44 24 24 01 00 00 	movl   $0x80000001,0x24(%rsp)
    1712:	80 
    1713:	48 8d 4c 24 24       	lea    0x24(%rsp),%rcx
    1718:	44 89 e2             	mov    %r12d,%edx
    171b:	be 01 00 00 00       	mov    $0x1,%esi
    1720:	89 c7                	mov    %eax,%edi
    1722:	e8 89 f9 ff ff       	callq  10b0 <epoll_ctl@plt>
    1727:	83 f8 ff             	cmp    $0xffffffff,%eax
    172a:	0f 85 8e 00 00 00    	jne    17be <main+0x1f5>
    1730:	48 8d 3d 19 19 00 00 	lea    0x1919(%rip),%rdi        # 3050 <_IO_stdin_used+0x50>
    1737:	e8 04 fa ff ff       	callq  1140 <perror@plt>
    173c:	bf 01 00 00 00       	mov    $0x1,%edi
    1741:	e8 2a fa ff ff       	callq  1170 <exit@plt>
    1746:	48 8d 3d 2d 19 00 00 	lea    0x192d(%rip),%rdi        # 307a <_IO_stdin_used+0x7a>
    174d:	e8 ee f9 ff ff       	callq  1140 <perror@plt>
    1752:	bf 01 00 00 00       	mov    $0x1,%edi
    1757:	e8 14 fa ff ff       	callq  1170 <exit@plt>
    175c:	48 8d 3d 1e 19 00 00 	lea    0x191e(%rip),%rdi        # 3081 <_IO_stdin_used+0x81>
    1763:	e8 d8 f9 ff ff       	callq  1140 <perror@plt>
    1768:	bf 01 00 00 00       	mov    $0x1,%edi
    176d:	e8 fe f9 ff ff       	callq  1170 <exit@plt>
    1772:	48 8d 3d 13 19 00 00 	lea    0x1913(%rip),%rdi        # 308c <_IO_stdin_used+0x8c>
    1779:	e8 c2 f9 ff ff       	callq  1140 <perror@plt>
    177e:	bf 01 00 00 00       	mov    $0x1,%edi
    1783:	e8 e8 f9 ff ff       	callq  1170 <exit@plt>
    1788:	bf 01 00 00 00       	mov    $0x1,%edi
    178d:	e8 de f9 ff ff       	callq  1170 <exit@plt>
    1792:	48 8d 3d 02 19 00 00 	lea    0x1902(%rip),%rdi        # 309b <_IO_stdin_used+0x9b>
    1799:	e8 a2 f9 ff ff       	callq  1140 <perror@plt>
    179e:	bf 01 00 00 00       	mov    $0x1,%edi
    17a3:	e8 c8 f9 ff ff       	callq  1170 <exit@plt>
    17a8:	48 8d 3d f3 18 00 00 	lea    0x18f3(%rip),%rdi        # 30a2 <_IO_stdin_used+0xa2>
    17af:	e8 8c f9 ff ff       	callq  1140 <perror@plt>
    17b4:	bf 01 00 00 00       	mov    $0x1,%edi
    17b9:	e8 b2 f9 ff ff       	callq  1170 <exit@plt>
    17be:	be 0c 00 00 00       	mov    $0xc,%esi
    17c3:	bf 40 00 00 00       	mov    $0x40,%edi
    17c8:	e8 03 f9 ff ff       	callq  10d0 <calloc@plt>
    17cd:	48 89 c3             	mov    %rax,%rbx
    17d0:	89 ea                	mov    %ebp,%edx
    17d2:	44 89 e6             	mov    %r12d,%esi
    17d5:	48 8d 3d d4 18 00 00 	lea    0x18d4(%rip),%rdi        # 30b0 <_IO_stdin_used+0xb0>
    17dc:	b8 00 00 00 00       	mov    $0x0,%eax
    17e1:	e8 9a f8 ff ff       	callq  1080 <printf@plt>
    17e6:	48 8d 2d e0 18 00 00 	lea    0x18e0(%rip),%rbp        # 30cd <_IO_stdin_used+0xcd>
    17ed:	eb 30                	jmp    181f <main+0x256>
    17ef:	ba 01 00 00 00       	mov    $0x1,%edx
    17f4:	48 89 ee             	mov    %rbp,%rsi
    17f7:	48 8b 05 fa 37 00 00 	mov    0x37fa(%rip),%rax        # 4ff8 <stderr@GLIBC_2.2.5>
    17fe:	48 8b 38             	mov    (%rax),%rdi
    1801:	b8 00 00 00 00       	mov    $0x0,%eax
    1806:	e8 d5 f8 ff ff       	callq  10e0 <fprintf@plt>
    180b:	48 8d 3d cc 18 00 00 	lea    0x18cc(%rip),%rdi        # 30de <_IO_stdin_used+0xde>
    1812:	e8 29 f9 ff ff       	callq  1140 <perror@plt>
    1817:	8b 7b 04             	mov    0x4(%rbx),%edi
    181a:	e8 71 f8 ff ff       	callq  1090 <close@plt>
    181f:	b9 ff ff ff ff       	mov    $0xffffffff,%ecx
    1824:	ba 40 00 00 00       	mov    $0x40,%edx
    1829:	48 89 de             	mov    %rbx,%rsi
    182c:	8b 3d b2 38 00 00    	mov    0x38b2(%rip),%edi        # 50e4 <epoll_fd>
    1832:	e8 e9 f8 ff ff       	callq  1120 <epoll_wait@plt>
    1837:	8b 0b                	mov    (%rbx),%ecx
    1839:	f6 c1 18             	test   $0x18,%cl
    183c:	75 b1                	jne    17ef <main+0x226>
    183e:	f6 c1 01             	test   $0x1,%cl
    1841:	74 ac                	je     17ef <main+0x226>
    1843:	8b 7b 04             	mov    0x4(%rbx),%edi
    1846:	3b 3d 9c 38 00 00    	cmp    0x389c(%rip),%edi        # 50e8 <socket_fd>
    184c:	74 07                	je     1855 <main+0x28c>
    184e:	e8 0d fb ff ff       	callq  1360 <process_new_data>
    1853:	eb ca                	jmp    181f <main+0x256>
    1855:	b8 00 00 00 00       	mov    $0x0,%eax
    185a:	e8 0c fc ff ff       	callq  146b <accept_and_add_new>
    185f:	eb be                	jmp    181f <main+0x256>
    1861:	66 2e 0f 1f 84 00 00 	nopw   %cs:0x0(%rax,%rax,1)
    1868:	00 00 00 
    186b:	0f 1f 44 00 00       	nopl   0x0(%rax,%rax,1)

0000000000001870 <__libc_csu_init>:
    1870:	41 57                	push   %r15
    1872:	49 89 d7             	mov    %rdx,%r15
    1875:	41 56                	push   %r14
    1877:	49 89 f6             	mov    %rsi,%r14
    187a:	41 55                	push   %r13
    187c:	41 89 fd             	mov    %edi,%r13d
    187f:	41 54                	push   %r12
    1881:	4c 8d 25 30 35 00 00 	lea    0x3530(%rip),%r12        # 4db8 <__frame_dummy_init_array_entry>
    1888:	55                   	push   %rbp
    1889:	48 8d 2d 30 35 00 00 	lea    0x3530(%rip),%rbp        # 4dc0 <__init_array_end>
    1890:	53                   	push   %rbx
    1891:	4c 29 e5             	sub    %r12,%rbp
    1894:	48 83 ec 08          	sub    $0x8,%rsp
    1898:	e8 63 f7 ff ff       	callq  1000 <_init>
    189d:	48 c1 fd 03          	sar    $0x3,%rbp
    18a1:	74 1b                	je     18be <__libc_csu_init+0x4e>
    18a3:	31 db                	xor    %ebx,%ebx
    18a5:	0f 1f 00             	nopl   (%rax)
    18a8:	4c 89 fa             	mov    %r15,%rdx
    18ab:	4c 89 f6             	mov    %r14,%rsi
    18ae:	44 89 ef             	mov    %r13d,%edi
    18b1:	41 ff 14 dc          	callq  *(%r12,%rbx,8)
    18b5:	48 83 c3 01          	add    $0x1,%rbx
    18b9:	48 39 dd             	cmp    %rbx,%rbp
    18bc:	75 ea                	jne    18a8 <__libc_csu_init+0x38>
    18be:	48 83 c4 08          	add    $0x8,%rsp
    18c2:	5b                   	pop    %rbx
    18c3:	5d                   	pop    %rbp
    18c4:	41 5c                	pop    %r12
    18c6:	41 5d                	pop    %r13
    18c8:	41 5e                	pop    %r14
    18ca:	41 5f                	pop    %r15
    18cc:	c3                   	retq   
    18cd:	0f 1f 00             	nopl   (%rax)

00000000000018d0 <__libc_csu_fini>:
    18d0:	c3                   	retq   

Disassembly of section .fini:

0000000000002000 <_fini>:
    2000:	48 83 ec 08          	sub    $0x8,%rsp
    2004:	48 83 c4 08          	add    $0x8,%rsp
    2008:	c3                   	retq   
